	.file	"codegen.c"
	.intel_syntax noprefix
	.text
.Ltext0:
	.section	.rodata
.LC0:
	.string	"\tpush rax"
	.text
	.globl	expand_next
	.type	expand_next, @function
expand_next:
.LFB0:
	.file 1 "../src/codegen.c"
	.loc 1 3 29
	.cfi_startproc
	push	rbp
	.cfi_def_cfa_offset 16
	.cfi_offset 6, -16
	mov	rbp, rsp
	.cfi_def_cfa_register 6
	sub	rsp, 16
	mov	QWORD PTR -8[rbp], rdi
	.loc 1 4 7
	jmp	.L2
.L3:
	.loc 1 5 3
	mov	rax, QWORD PTR -8[rbp]
	mov	rdi, rax
	call	gen
	.loc 1 6 7
	mov	rax, QWORD PTR -8[rbp]
	mov	rax, QWORD PTR 24[rax]
	mov	QWORD PTR -8[rbp], rax
.L2:
	.loc 1 4 7
	cmp	QWORD PTR -8[rbp], 0
	jne	.L3
	.loc 1 8 2
	lea	rdi, .LC0[rip]
	call	puts@PLT
	.loc 1 9 1
	nop
	leave
	.cfi_def_cfa 7, 8
	ret
	.cfi_endproc
.LFE0:
	.size	expand_next, .-expand_next
	.globl	expand_block_code
	.type	expand_block_code, @function
expand_block_code:
.LFB1:
	.loc 1 11 35
	.cfi_startproc
	push	rbp
	.cfi_def_cfa_offset 16
	.cfi_offset 6, -16
	mov	rbp, rsp
	.cfi_def_cfa_register 6
	sub	rsp, 16
	mov	QWORD PTR -8[rbp], rdi
	.loc 1 12 7
	jmp	.L5
.L6:
	.loc 1 13 3
	mov	rax, QWORD PTR -8[rbp]
	mov	rdi, rax
	call	gen
	.loc 1 14 7
	mov	rax, QWORD PTR -8[rbp]
	mov	rax, QWORD PTR 32[rax]
	mov	QWORD PTR -8[rbp], rax
.L5:
	.loc 1 12 7
	cmp	QWORD PTR -8[rbp], 0
	jne	.L6
	.loc 1 16 2
	lea	rdi, .LC0[rip]
	call	puts@PLT
	.loc 1 17 1
	nop
	leave
	.cfi_def_cfa 7, 8
	ret
	.cfi_endproc
.LFE1:
	.size	expand_block_code, .-expand_block_code
	.section	.rodata
.LC1:
	.string	"\tmov rax, fs:0"
.LC2:
	.string	"\tadd rax, fs:%.*s@tpoff\n"
.LC3:
	.string	"\tlea rax,%.*s[rip]\n"
	.text
	.globl	gen_gvar
	.type	gen_gvar, @function
gen_gvar:
.LFB2:
	.loc 1 20 26
	.cfi_startproc
	push	rbp
	.cfi_def_cfa_offset 16
	.cfi_offset 6, -16
	mov	rbp, rsp
	.cfi_def_cfa_register 6
	sub	rsp, 16
	mov	QWORD PTR -8[rbp], rdi
	.loc 1 21 9
	mov	rax, QWORD PTR -8[rbp]
	mov	rax, QWORD PTR 40[rax]
	.loc 1 21 15
	mov	eax, DWORD PTR 32[rax]
	.loc 1 21 4
	test	eax, eax
	je	.L8
	.loc 1 22 3
	lea	rdi, .LC1[rip]
	call	puts@PLT
	.loc 1 23 3
	mov	rax, QWORD PTR -8[rbp]
	mov	rdx, QWORD PTR 56[rax]
	mov	rax, QWORD PTR -8[rbp]
	mov	eax, DWORD PTR 48[rax]
	mov	esi, eax
	lea	rdi, .LC2[rip]
	mov	eax, 0
	call	printf@PLT
	jmp	.L9
.L8:
	.loc 1 25 3
	mov	rax, QWORD PTR -8[rbp]
	mov	rdx, QWORD PTR 56[rax]
	mov	rax, QWORD PTR -8[rbp]
	mov	eax, DWORD PTR 48[rax]
	mov	esi, eax
	lea	rdi, .LC3[rip]
	mov	eax, 0
	call	printf@PLT
.L9:
	.loc 1 27 2
	lea	rdi, .LC0[rip]
	call	puts@PLT
	.loc 1 28 1
	nop
	leave
	.cfi_def_cfa 7, 8
	ret
	.cfi_endproc
.LFE2:
	.size	gen_gvar, .-gen_gvar
	.section	.rodata
.LC4:
	.string	"not a variable"
.LC5:
	.string	"\tmov rax,rbp"
.LC6:
	.string	"\tsub rax,%d\n"
	.text
	.globl	gen_lvar
	.type	gen_lvar, @function
gen_lvar:
.LFB3:
	.loc 1 30 26
	.cfi_startproc
	push	rbp
	.cfi_def_cfa_offset 16
	.cfi_offset 6, -16
	mov	rbp, rsp
	.cfi_def_cfa_register 6
	sub	rsp, 16
	mov	QWORD PTR -8[rbp], rdi
	.loc 1 31 9
	mov	rax, QWORD PTR -8[rbp]
	mov	eax, DWORD PTR [rax]
	.loc 1 31 4
	cmp	eax, 22
	je	.L11
	.loc 1 31 34 discriminator 1
	mov	rax, QWORD PTR -8[rbp]
	mov	eax, DWORD PTR [rax]
	.loc 1 31 27 discriminator 1
	cmp	eax, 24
	je	.L11
	.loc 1 31 61 discriminator 2
	mov	rax, QWORD PTR -8[rbp]
	mov	eax, DWORD PTR [rax]
	.loc 1 31 54 discriminator 2
	cmp	eax, 28
	je	.L11
	.loc 1 32 17
	mov	rax, QWORD PTR token[rip]
	.loc 1 32 3
	mov	rax, QWORD PTR 24[rax]
	lea	rsi, .LC4[rip]
	mov	rdi, rax
	call	error_at@PLT
.L11:
	.loc 1 35 2
	lea	rdi, .LC5[rip]
	call	puts@PLT
	.loc 1 36 2
	mov	rax, QWORD PTR -8[rbp]
	mov	eax, DWORD PTR 64[rax]
	mov	esi, eax
	lea	rdi, .LC6[rip]
	mov	eax, 0
	call	printf@PLT
	.loc 1 37 2
	lea	rdi, .LC0[rip]
	call	puts@PLT
	.loc 1 38 1
	nop
	leave
	.cfi_def_cfa 7, 8
	ret
	.cfi_endproc
.LFE3:
	.size	gen_lvar, .-gen_lvar
	.section	.rodata
.LC7:
	.string	"not a struct"
.LC8:
	.string	"\tpop rdi"
.LC9:
	.string	"\tpop rax"
.LC10:
	.string	"\tadd rax,rdi"
	.text
	.globl	gen_struc
	.type	gen_struc, @function
gen_struc:
.LFB4:
	.loc 1 40 27
	.cfi_startproc
	push	rbp
	.cfi_def_cfa_offset 16
	.cfi_offset 6, -16
	mov	rbp, rsp
	.cfi_def_cfa_register 6
	sub	rsp, 16
	mov	QWORD PTR -8[rbp], rdi
	.loc 1 41 9
	mov	rax, QWORD PTR -8[rbp]
	mov	eax, DWORD PTR [rax]
	.loc 1 41 4
	cmp	eax, 16
	je	.L13
	.loc 1 41 33 discriminator 1
	mov	rax, QWORD PTR -8[rbp]
	mov	eax, DWORD PTR [rax]
	.loc 1 41 26 discriminator 1
	cmp	eax, 17
	je	.L13
	.loc 1 42 17
	mov	rax, QWORD PTR token[rip]
	.loc 1 42 3
	mov	rax, QWORD PTR 24[rax]
	lea	rsi, .LC7[rip]
	mov	rdi, rax
	call	error_at@PLT
.L13:
	.loc 1 45 2
	mov	rax, QWORD PTR -8[rbp]
	mov	rax, QWORD PTR 8[rax]
	mov	rdi, rax
	call	gen_expr
	.loc 1 46 2
	mov	rax, QWORD PTR -8[rbp]
	mov	rax, QWORD PTR 16[rax]
	mov	rdi, rax
	call	gen_expr
	.loc 1 48 2
	lea	rdi, .LC8[rip]
	call	puts@PLT
	.loc 1 49 2
	lea	rdi, .LC9[rip]
	call	puts@PLT
	.loc 1 50 2
	lea	rdi, .LC10[rip]
	call	puts@PLT
	.loc 1 51 2
	lea	rdi, .LC0[rip]
	call	puts@PLT
	.loc 1 52 1
	nop
	leave
	.cfi_def_cfa 7, 8
	ret
	.cfi_endproc
.LFE4:
	.size	gen_struc, .-gen_struc
	.section	.rodata
.LC11:
	.string	"\tmov %s,rax\n"
.LC12:
	.string	"\tmov rax,%d\n"
	.text
	.globl	gen_args
	.type	gen_args, @function
gen_args:
.LFB5:
	.loc 1 54 26
	.cfi_startproc
	push	rbp
	.cfi_def_cfa_offset 16
	.cfi_offset 6, -16
	mov	rbp, rsp
	.cfi_def_cfa_register 6
	sub	rsp, 48
	mov	QWORD PTR -40[rbp], rdi
	.loc 1 56 6
	mov	DWORD PTR -8[rbp], 0
	.loc 1 57 13
	mov	DWORD PTR -32[rbp], 6906994
	mov	DWORD PTR -28[rbp], 6910834
	mov	DWORD PTR -24[rbp], 7890034
	mov	DWORD PTR -20[rbp], 7889778
	mov	DWORD PTR -16[rbp], 14450
	mov	DWORD PTR -12[rbp], 14706
	.loc 1 60 7
	jmp	.L15
.L16:
	.loc 1 61 3
	mov	rax, QWORD PTR -40[rbp]
	mov	rdi, rax
	call	gen_expr
	.loc 1 62 12
	add	DWORD PTR -8[rbp], 1
	.loc 1 63 7
	mov	rax, QWORD PTR -40[rbp]
	mov	rax, QWORD PTR 24[rax]
	mov	QWORD PTR -40[rbp], rax
.L15:
	.loc 1 60 7
	cmp	QWORD PTR -40[rbp], 0
	jne	.L16
	.loc 1 66 13
	mov	eax, DWORD PTR -8[rbp]
	mov	DWORD PTR -4[rbp], eax
	.loc 1 66 2
	jmp	.L17
.L18:
	.loc 1 67 3 discriminator 3
	lea	rdi, .LC9[rip]
	call	puts@PLT
	.loc 1 68 38 discriminator 3
	mov	eax, DWORD PTR -4[rbp]
	lea	edx, -1[rax]
	.loc 1 68 30 discriminator 3
	lea	rax, -32[rbp]
	movsx	rdx, edx
	sal	rdx, 2
	add	rax, rdx
	.loc 1 68 3 discriminator 3
	mov	rsi, rax
	lea	rdi, .LC11[rip]
	mov	eax, 0
	call	printf@PLT
	.loc 1 66 43 discriminator 3
	sub	DWORD PTR -4[rbp], 1
.L17:
	.loc 1 66 2 discriminator 1
	cmp	DWORD PTR -4[rbp], 0
	jg	.L18
	.loc 1 70 2
	mov	eax, DWORD PTR -8[rbp]
	mov	esi, eax
	lea	rdi, .LC12[rip]
	mov	eax, 0
	call	printf@PLT
	.loc 1 72 1
	nop
	leave
	.cfi_def_cfa 7, 8
	ret
	.cfi_endproc
.LFE5:
	.size	gen_args, .-gen_args
	.section	.rodata
.LC13:
	.string	"can not assign"
	.text
	.globl	gen_address
	.type	gen_address, @function
gen_address:
.LFB6:
	.loc 1 74 29
	.cfi_startproc
	push	rbp
	.cfi_def_cfa_offset 16
	.cfi_offset 6, -16
	mov	rbp, rsp
	.cfi_def_cfa_register 6
	sub	rsp, 16
	mov	QWORD PTR -8[rbp], rdi
	.loc 1 75 14
	mov	rax, QWORD PTR -8[rbp]
	mov	eax, DWORD PTR [rax]
	.loc 1 75 9
	cmp	eax, 21
	jne	.L20
	.loc 1 75 36 discriminator 1
	mov	rax, QWORD PTR -8[rbp]
	mov	rax, QWORD PTR 16[rax]
	mov	rdi, rax
	call	gen_expr
	.loc 1 83 1 discriminator 1
	jmp	.L28
.L20:
	.loc 1 76 14
	mov	rax, QWORD PTR -8[rbp]
	mov	eax, DWORD PTR [rax]
	.loc 1 76 9
	cmp	eax, 16
	jne	.L22
	.loc 1 76 36 discriminator 1
	mov	rax, QWORD PTR -8[rbp]
	mov	rdi, rax
	call	gen_struc
	.loc 1 83 1 discriminator 1
	jmp	.L28
.L22:
	.loc 1 77 14
	mov	rax, QWORD PTR -8[rbp]
	mov	eax, DWORD PTR [rax]
	.loc 1 77 9
	cmp	eax, 17
	jne	.L23
	.loc 1 77 36 discriminator 1
	mov	rax, QWORD PTR -8[rbp]
	mov	rdi, rax
	call	gen_struc
	.loc 1 83 1 discriminator 1
	jmp	.L28
.L23:
	.loc 1 78 14
	mov	rax, QWORD PTR -8[rbp]
	mov	eax, DWORD PTR [rax]
	.loc 1 78 9
	cmp	eax, 23
	jne	.L24
	.loc 1 78 36 discriminator 1
	mov	rax, QWORD PTR -8[rbp]
	mov	rdi, rax
	call	gen_gvar
	.loc 1 83 1 discriminator 1
	jmp	.L28
.L24:
	.loc 1 79 14
	mov	rax, QWORD PTR -8[rbp]
	mov	eax, DWORD PTR [rax]
	.loc 1 79 9
	cmp	eax, 25
	jne	.L25
	.loc 1 79 36 discriminator 1
	mov	rax, QWORD PTR -8[rbp]
	mov	rdi, rax
	call	gen_gvar
	.loc 1 83 1 discriminator 1
	jmp	.L28
.L25:
	.loc 1 80 14
	mov	rax, QWORD PTR -8[rbp]
	mov	eax, DWORD PTR [rax]
	.loc 1 80 9
	cmp	eax, 22
	jne	.L26
	.loc 1 80 36 discriminator 1
	mov	rax, QWORD PTR -8[rbp]
	mov	rdi, rax
	call	gen_lvar
	.loc 1 83 1 discriminator 1
	jmp	.L28
.L26:
	.loc 1 81 14
	mov	rax, QWORD PTR -8[rbp]
	mov	eax, DWORD PTR [rax]
	.loc 1 81 9
	cmp	eax, 24
	jne	.L27
	.loc 1 81 36 discriminator 1
	mov	rax, QWORD PTR -8[rbp]
	mov	rdi, rax
	call	gen_lvar
	.loc 1 83 1 discriminator 1
	jmp	.L28
.L27:
	.loc 1 82 21
	mov	rax, QWORD PTR token[rip]
	.loc 1 82 7
	mov	rax, QWORD PTR 24[rax]
	lea	rsi, .LC13[rip]
	mov	rdi, rax
	call	error_at@PLT
.L28:
	.loc 1 83 1
	nop
	leave
	.cfi_def_cfa 7, 8
	ret
	.cfi_endproc
.LFE6:
	.size	gen_address, .-gen_address
	.section	.rodata
.LC14:
	.string	"\tadd %s,%s\n"
.LC15:
	.string	"\tsub %s,%s\n"
.LC16:
	.string	"\timul %s,%s\n"
.LC17:
	.string	"\tcqo"
.LC18:
	.string	"\tidiv %s,%s\n"
.LC19:
	.string	"\tmov %s,%s\n"
.LC20:
	.string	"\tcmp %s,%s\n"
.LC21:
	.string	"\tsetl al"
.LC22:
	.string	"\tmovzb rax,al"
.LC23:
	.string	"\tsetle al"
.LC24:
	.string	"\tsete al"
.LC25:
	.string	"\tsetne al"
.LC26:
	.string	"\tand %s,%s\n"
.LC27:
	.string	"\tor %s,%s\n"
.LC28:
	.string	"cannot code gen"
	.text
	.globl	gen_calc
	.type	gen_calc, @function
gen_calc:
.LFB7:
	.loc 1 85 26
	.cfi_startproc
	push	rbp
	.cfi_def_cfa_offset 16
	.cfi_offset 6, -16
	mov	rbp, rsp
	.cfi_def_cfa_register 6
	sub	rsp, 112
	mov	QWORD PTR -104[rbp], rdi
	.loc 1 87 13
	mov	DWORD PTR -32[rbp], 7889253
	mov	DWORD PTR -28[rbp], 7889253
	mov	DWORD PTR -24[rbp], 7889253
	mov	DWORD PTR -20[rbp], 7889253
	mov	DWORD PTR -16[rbp], 7889266
	mov	DWORD PTR -12[rbp], 7889266
	.loc 1 88 13
	mov	DWORD PTR -64[rbp], 7890021
	mov	DWORD PTR -60[rbp], 7890021
	mov	DWORD PTR -56[rbp], 7890021
	mov	DWORD PTR -52[rbp], 7890021
	mov	DWORD PTR -48[rbp], 7890034
	mov	DWORD PTR -44[rbp], 7890034
	.loc 1 89 13
	mov	DWORD PTR -96[rbp], 6906981
	mov	DWORD PTR -92[rbp], 6906981
	mov	DWORD PTR -88[rbp], 6906981
	mov	DWORD PTR -84[rbp], 6906981
	mov	DWORD PTR -80[rbp], 6906994
	mov	DWORD PTR -76[rbp], 6906994
	.loc 1 90 20
	mov	rax, QWORD PTR -104[rbp]
	mov	rax, QWORD PTR 40[rax]
	.loc 1 90 26
	mov	eax, DWORD PTR [rax]
	.loc 1 90 44
	cmp	eax, 7
	je	.L30
	.loc 1 90 55 discriminator 1
	mov	rax, QWORD PTR -104[rbp]
	mov	rax, QWORD PTR 40[rax]
	.loc 1 90 61 discriminator 1
	mov	eax, DWORD PTR [rax]
	jmp	.L31
.L30:
	.loc 1 90 44 discriminator 2
	mov	eax, 1
.L31:
	.loc 1 90 6 discriminator 4
	mov	DWORD PTR -4[rbp], eax
	.loc 1 92 13 discriminator 4
	mov	rax, QWORD PTR -104[rbp]
	mov	eax, DWORD PTR [rax]
	cmp	eax, 12
	ja	.L32
	mov	eax, eax
	lea	rdx, 0[0+rax*4]
	lea	rax, .L34[rip]
	mov	eax, DWORD PTR [rdx+rax]
	cdqe
	lea	rdx, .L34[rip]
	add	rax, rdx
	jmp	rax
	.section	.rodata
	.align 4
	.align 4
.L34:
	.long	.L46-.L34
	.long	.L45-.L34
	.long	.L44-.L34
	.long	.L43-.L34
	.long	.L42-.L34
	.long	.L41-.L34
	.long	.L40-.L34
	.long	.L39-.L34
	.long	.L38-.L34
	.long	.L37-.L34
	.long	.L36-.L34
	.long	.L35-.L34
	.long	.L33-.L34
	.text
.L46:
	.loc 1 94 49
	lea	rax, -96[rbp]
	mov	edx, DWORD PTR -4[rbp]
	movsx	rdx, edx
	sal	rdx, 2
	add	rdx, rax
	.loc 1 94 33
	lea	rax, -32[rbp]
	mov	ecx, DWORD PTR -4[rbp]
	movsx	rcx, ecx
	sal	rcx, 2
	add	rax, rcx
	.loc 1 94 4
	mov	rsi, rax
	lea	rdi, .LC14[rip]
	mov	eax, 0
	call	printf@PLT
	.loc 1 95 4
	jmp	.L47
.L45:
	.loc 1 97 49
	lea	rax, -96[rbp]
	mov	edx, DWORD PTR -4[rbp]
	movsx	rdx, edx
	sal	rdx, 2
	add	rdx, rax
	.loc 1 97 33
	lea	rax, -32[rbp]
	mov	ecx, DWORD PTR -4[rbp]
	movsx	rcx, ecx
	sal	rcx, 2
	add	rax, rcx
	.loc 1 97 4
	mov	rsi, rax
	lea	rdi, .LC15[rip]
	mov	eax, 0
	call	printf@PLT
	.loc 1 98 4
	jmp	.L47
.L44:
	.loc 1 100 50
	lea	rax, -96[rbp]
	mov	edx, DWORD PTR -4[rbp]
	movsx	rdx, edx
	sal	rdx, 2
	add	rdx, rax
	.loc 1 100 34
	lea	rax, -32[rbp]
	mov	ecx, DWORD PTR -4[rbp]
	movsx	rcx, ecx
	sal	rcx, 2
	add	rax, rcx
	.loc 1 100 4
	mov	rsi, rax
	lea	rdi, .LC16[rip]
	mov	eax, 0
	call	printf@PLT
	.loc 1 101 4
	jmp	.L47
.L43:
	.loc 1 103 4
	lea	rdi, .LC17[rip]
	call	puts@PLT
	.loc 1 104 50
	lea	rax, -96[rbp]
	mov	edx, DWORD PTR -4[rbp]
	movsx	rdx, edx
	sal	rdx, 2
	add	rdx, rax
	.loc 1 104 34
	lea	rax, -32[rbp]
	mov	ecx, DWORD PTR -4[rbp]
	movsx	rcx, ecx
	sal	rcx, 2
	add	rax, rcx
	.loc 1 104 4
	mov	rsi, rax
	lea	rdi, .LC18[rip]
	mov	eax, 0
	call	printf@PLT
	.loc 1 105 4
	jmp	.L47
.L42:
	.loc 1 107 4
	lea	rdi, .LC17[rip]
	call	puts@PLT
	.loc 1 108 50
	lea	rax, -96[rbp]
	mov	edx, DWORD PTR -4[rbp]
	movsx	rdx, edx
	sal	rdx, 2
	add	rdx, rax
	.loc 1 108 34
	lea	rax, -32[rbp]
	mov	ecx, DWORD PTR -4[rbp]
	movsx	rcx, ecx
	sal	rcx, 2
	add	rax, rcx
	.loc 1 108 4
	mov	rsi, rax
	lea	rdi, .LC18[rip]
	mov	eax, 0
	call	printf@PLT
	.loc 1 109 49
	lea	rax, -64[rbp]
	mov	edx, DWORD PTR -4[rbp]
	movsx	rdx, edx
	sal	rdx, 2
	add	rdx, rax
	.loc 1 109 33
	lea	rax, -32[rbp]
	mov	ecx, DWORD PTR -4[rbp]
	movsx	rcx, ecx
	sal	rcx, 2
	add	rax, rcx
	.loc 1 109 4
	mov	rsi, rax
	lea	rdi, .LC19[rip]
	mov	eax, 0
	call	printf@PLT
	.loc 1 110 4
	jmp	.L47
.L41:
	.loc 1 112 49
	lea	rax, -32[rbp]
	mov	edx, DWORD PTR -4[rbp]
	movsx	rdx, edx
	sal	rdx, 2
	add	rdx, rax
	.loc 1 112 33
	lea	rax, -96[rbp]
	mov	ecx, DWORD PTR -4[rbp]
	movsx	rcx, ecx
	sal	rcx, 2
	add	rax, rcx
	.loc 1 112 4
	mov	rsi, rax
	lea	rdi, .LC20[rip]
	mov	eax, 0
	call	printf@PLT
	.loc 1 113 4
	lea	rdi, .LC21[rip]
	call	puts@PLT
	.loc 1 114 4
	lea	rdi, .LC22[rip]
	call	puts@PLT
	.loc 1 115 4
	jmp	.L47
.L40:
	.loc 1 117 49
	lea	rax, -32[rbp]
	mov	edx, DWORD PTR -4[rbp]
	movsx	rdx, edx
	sal	rdx, 2
	add	rdx, rax
	.loc 1 117 33
	lea	rax, -96[rbp]
	mov	ecx, DWORD PTR -4[rbp]
	movsx	rcx, ecx
	sal	rcx, 2
	add	rax, rcx
	.loc 1 117 4
	mov	rsi, rax
	lea	rdi, .LC20[rip]
	mov	eax, 0
	call	printf@PLT
	.loc 1 118 4
	lea	rdi, .LC23[rip]
	call	puts@PLT
	.loc 1 119 4
	lea	rdi, .LC22[rip]
	call	puts@PLT
	.loc 1 120 4
	jmp	.L47
.L39:
	.loc 1 122 49
	lea	rax, -96[rbp]
	mov	edx, DWORD PTR -4[rbp]
	movsx	rdx, edx
	sal	rdx, 2
	add	rdx, rax
	.loc 1 122 33
	lea	rax, -32[rbp]
	mov	ecx, DWORD PTR -4[rbp]
	movsx	rcx, ecx
	sal	rcx, 2
	add	rax, rcx
	.loc 1 122 4
	mov	rsi, rax
	lea	rdi, .LC20[rip]
	mov	eax, 0
	call	printf@PLT
	.loc 1 123 4
	lea	rdi, .LC21[rip]
	call	puts@PLT
	.loc 1 124 4
	lea	rdi, .LC22[rip]
	call	puts@PLT
	.loc 1 125 4
	jmp	.L47
.L38:
	.loc 1 127 49
	lea	rax, -96[rbp]
	mov	edx, DWORD PTR -4[rbp]
	movsx	rdx, edx
	sal	rdx, 2
	add	rdx, rax
	.loc 1 127 33
	lea	rax, -32[rbp]
	mov	ecx, DWORD PTR -4[rbp]
	movsx	rcx, ecx
	sal	rcx, 2
	add	rax, rcx
	.loc 1 127 4
	mov	rsi, rax
	lea	rdi, .LC20[rip]
	mov	eax, 0
	call	printf@PLT
	.loc 1 128 4
	lea	rdi, .LC23[rip]
	call	puts@PLT
	.loc 1 129 4
	lea	rdi, .LC22[rip]
	call	puts@PLT
	.loc 1 130 4
	jmp	.L47
.L37:
	.loc 1 132 49
	lea	rax, -96[rbp]
	mov	edx, DWORD PTR -4[rbp]
	movsx	rdx, edx
	sal	rdx, 2
	add	rdx, rax
	.loc 1 132 33
	lea	rax, -32[rbp]
	mov	ecx, DWORD PTR -4[rbp]
	movsx	rcx, ecx
	sal	rcx, 2
	add	rax, rcx
	.loc 1 132 4
	mov	rsi, rax
	lea	rdi, .LC20[rip]
	mov	eax, 0
	call	printf@PLT
	.loc 1 133 4
	lea	rdi, .LC24[rip]
	call	puts@PLT
	.loc 1 134 4
	lea	rdi, .LC22[rip]
	call	puts@PLT
	.loc 1 135 4
	jmp	.L47
.L36:
	.loc 1 137 49
	lea	rax, -96[rbp]
	mov	edx, DWORD PTR -4[rbp]
	movsx	rdx, edx
	sal	rdx, 2
	add	rdx, rax
	.loc 1 137 33
	lea	rax, -32[rbp]
	mov	ecx, DWORD PTR -4[rbp]
	movsx	rcx, ecx
	sal	rcx, 2
	add	rax, rcx
	.loc 1 137 4
	mov	rsi, rax
	lea	rdi, .LC20[rip]
	mov	eax, 0
	call	printf@PLT
	.loc 1 138 4
	lea	rdi, .LC25[rip]
	call	puts@PLT
	.loc 1 139 4
	lea	rdi, .LC22[rip]
	call	puts@PLT
	.loc 1 140 4
	jmp	.L47
.L35:
	.loc 1 142 49
	lea	rax, -96[rbp]
	mov	edx, DWORD PTR -4[rbp]
	movsx	rdx, edx
	sal	rdx, 2
	add	rdx, rax
	.loc 1 142 33
	lea	rax, -32[rbp]
	mov	ecx, DWORD PTR -4[rbp]
	movsx	rcx, ecx
	sal	rcx, 2
	add	rax, rcx
	.loc 1 142 4
	mov	rsi, rax
	lea	rdi, .LC26[rip]
	mov	eax, 0
	call	printf@PLT
	.loc 1 143 4
	lea	rdi, .LC22[rip]
	call	puts@PLT
	.loc 1 144 4
	jmp	.L47
.L33:
	.loc 1 146 48
	lea	rax, -96[rbp]
	mov	edx, DWORD PTR -4[rbp]
	movsx	rdx, edx
	sal	rdx, 2
	add	rdx, rax
	.loc 1 146 32
	lea	rax, -32[rbp]
	mov	ecx, DWORD PTR -4[rbp]
	movsx	rcx, ecx
	sal	rcx, 2
	add	rax, rcx
	.loc 1 146 4
	mov	rsi, rax
	lea	rdi, .LC27[rip]
	mov	eax, 0
	call	printf@PLT
	.loc 1 147 4
	lea	rdi, .LC22[rip]
	call	puts@PLT
	.loc 1 148 4
	jmp	.L47
.L32:
	.loc 1 150 18
	mov	rax, QWORD PTR token[rip]
	.loc 1 150 4
	mov	rax, QWORD PTR 24[rax]
	lea	rsi, .LC28[rip]
	mov	rdi, rax
	call	error_at@PLT
	.loc 1 152 1
	nop
.L47:
	nop
	leave
	.cfi_def_cfa 7, 8
	ret
	.cfi_endproc
.LFE7:
	.size	gen_calc, .-gen_calc
	.section	.rodata
.LC29:
	.string	"\tpush %d\n"
.LC30:
	.string	"\tmov rax,[rax]"
.LC31:
	.string	"\tmovzx eax,BYTE PTR [rax]"
.LC32:
	.string	"\tmovsx eax,al"
.LC33:
	.string	"\tpush [rax]"
.LC34:
	.string	"\tmov R8B,dil"
.LC35:
	.string	"\tcmp R8B,0"
.LC36:
	.string	"\tsetne dl"
.LC37:
	.string	"\tmovzb rdi,dl"
.LC38:
	.string	"\tmov [rax],dil"
.LC39:
	.string	"\tmov [rax],edi"
.LC40:
	.string	"\tmov [rax],rdi"
.LC41:
	.string	"\tlea rax, .LC%d[rip]\n"
.LC42:
	.string	"\tpush rdi"
.LC43:
	.string	"\tcmp rax,0"
.LC44:
	.string	"\tje .Lelse%03d\n"
.LC45:
	.string	"\tjmp .LifEnd%03d\n"
.LC46:
	.string	".Lelse%03d:\n"
.LC47:
	.string	".LifEnd%03d:\n"
.LC48:
	.string	"\tpush rbp"
.LC49:
	.string	"\tmov rbp,rsp"
.LC50:
	.string	"\tand rsp,-16"
.LC51:
	.string	"\tcall %.*s\n"
.LC52:
	.string	"\tmov rsp,rbp"
.LC53:
	.string	"\tpop rbp"
	.text
	.globl	gen_expr
	.type	gen_expr, @function
gen_expr:
.LFB8:
	.loc 1 154 26
	.cfi_startproc
	push	rbp
	.cfi_def_cfa_offset 16
	.cfi_offset 6, -16
	mov	rbp, rsp
	.cfi_def_cfa_register 6
	sub	rsp, 16
	mov	QWORD PTR -8[rbp], rdi
	.loc 1 155 13
	mov	rax, QWORD PTR -8[rbp]
	mov	eax, DWORD PTR [rax]
	sub	eax, 13
	cmp	eax, 17
	ja	.L49
	mov	eax, eax
	lea	rdx, 0[0+rax*4]
	lea	rax, .L51[rip]
	mov	eax, DWORD PTR [rdx+rax]
	cdqe
	lea	rdx, .L51[rip]
	add	rax, rdx
	jmp	rax
	.section	.rodata
	.align 4
	.align 4
.L51:
	.long	.L66-.L51
	.long	.L65-.L51
	.long	.L64-.L51
	.long	.L63-.L51
	.long	.L63-.L51
	.long	.L62-.L51
	.long	.L61-.L51
	.long	.L60-.L51
	.long	.L59-.L51
	.long	.L58-.L51
	.long	.L57-.L51
	.long	.L56-.L51
	.long	.L55-.L51
	.long	.L54-.L51
	.long	.L53-.L51
	.long	.L52-.L51
	.long	.L49-.L51
	.long	.L50-.L51
	.text
.L53:
	.loc 1 157 4
	mov	rax, QWORD PTR -8[rbp]
	mov	eax, DWORD PTR 48[rax]
	mov	esi, eax
	lea	rdi, .LC29[rip]
	mov	eax, 0
	call	printf@PLT
	.loc 1 158 4
	jmp	.L48
.L57:
	.loc 1 160 4
	mov	rax, QWORD PTR -8[rbp]
	mov	rdi, rax
	call	gen_gvar
	.loc 1 162 4
	lea	rdi, .LC9[rip]
	call	puts@PLT
	.loc 1 163 4
	lea	rdi, .LC30[rip]
	call	puts@PLT
	.loc 1 164 4
	lea	rdi, .LC0[rip]
	call	puts@PLT
	.loc 1 166 4
	jmp	.L48
.L58:
	.loc 1 168 4
	mov	rax, QWORD PTR -8[rbp]
	mov	rdi, rax
	call	gen_lvar
	.loc 1 170 4
	lea	rdi, .LC9[rip]
	call	puts@PLT
	.loc 1 171 11
	mov	rax, QWORD PTR -8[rbp]
	mov	rax, QWORD PTR 40[rax]
	.loc 1 171 17
	mov	eax, DWORD PTR [rax]
	.loc 1 171 6
	cmp	eax, 2
	ja	.L68
	.loc 1 172 5
	lea	rdi, .LC31[rip]
	call	puts@PLT
	.loc 1 173 5
	lea	rdi, .LC32[rip]
	call	puts@PLT
	jmp	.L69
.L68:
	.loc 1 175 5
	lea	rdi, .LC30[rip]
	call	puts@PLT
.L69:
	.loc 1 177 4
	lea	rdi, .LC0[rip]
	call	puts@PLT
	.loc 1 178 4
	jmp	.L48
.L55:
	.loc 1 180 4
	mov	rax, QWORD PTR -8[rbp]
	mov	rdi, rax
	call	gen_gvar
	.loc 1 181 4
	jmp	.L48
.L56:
	.loc 1 183 4
	mov	rax, QWORD PTR -8[rbp]
	mov	rdi, rax
	call	gen_lvar
	.loc 1 184 4
	jmp	.L48
.L62:
	.loc 1 187 4
	mov	rax, QWORD PTR -8[rbp]
	mov	rax, QWORD PTR 8[rax]
	mov	rdi, rax
	call	gen
	.loc 1 188 4
	lea	rdi, .LC0[rip]
	call	puts@PLT
	.loc 1 189 4
	jmp	.L48
.L64:
	.loc 1 192 4
	mov	rax, QWORD PTR -8[rbp]
	mov	rax, QWORD PTR 8[rax]
	mov	rdi, rax
	call	gen_address
	.loc 1 193 17
	mov	rax, QWORD PTR -8[rbp]
	mov	rax, QWORD PTR 16[rax]
	.loc 1 193 22
	mov	rax, QWORD PTR 16[rax]
	.loc 1 193 4
	mov	rax, QWORD PTR 16[rax]
	mov	rdi, rax
	call	gen_expr
	.loc 1 196 4
	lea	rdi, .LC8[rip]
	call	puts@PLT
	.loc 1 197 4
	lea	rdi, .LC9[rip]
	call	puts@PLT
	.loc 1 198 4
	lea	rdi, .LC33[rip]
	call	puts@PLT
	.loc 1 199 4
	lea	rdi, .LC0[rip]
	call	puts@PLT
	.loc 1 200 4
	lea	rdi, .LC30[rip]
	call	puts@PLT
	.loc 1 202 17
	mov	rax, QWORD PTR -8[rbp]
	mov	rax, QWORD PTR 16[rax]
	.loc 1 202 4
	mov	rax, QWORD PTR 16[rax]
	mov	rdi, rax
	call	gen_calc
	.loc 1 203 4
	lea	rdi, .LC0[rip]
	call	puts@PLT
	.loc 1 206 4
	lea	rdi, .LC8[rip]
	call	puts@PLT
	.loc 1 207 4
	lea	rdi, .LC9[rip]
	call	puts@PLT
	.loc 1 208 11
	mov	rax, QWORD PTR -8[rbp]
	mov	rax, QWORD PTR 8[rax]
	.loc 1 208 16
	mov	rax, QWORD PTR 40[rax]
	.loc 1 208 22
	mov	eax, DWORD PTR [rax]
	.loc 1 208 6
	cmp	eax, 2
	ja	.L70
	.loc 1 209 12
	mov	rax, QWORD PTR -8[rbp]
	mov	rax, QWORD PTR 8[rax]
	.loc 1 209 17
	mov	rax, QWORD PTR 40[rax]
	.loc 1 209 23
	mov	eax, DWORD PTR [rax]
	.loc 1 209 7
	cmp	eax, 1
	jne	.L71
	.loc 1 210 6
	lea	rdi, .LC34[rip]
	call	puts@PLT
	.loc 1 211 6
	lea	rdi, .LC35[rip]
	call	puts@PLT
	.loc 1 212 6
	lea	rdi, .LC36[rip]
	call	puts@PLT
	.loc 1 213 6
	lea	rdi, .LC37[rip]
	call	puts@PLT
.L71:
	.loc 1 215 5
	lea	rdi, .LC38[rip]
	call	puts@PLT
	.loc 1 224 4
	jmp	.L48
.L70:
	.loc 1 216 17
	mov	rax, QWORD PTR -8[rbp]
	mov	rax, QWORD PTR 8[rax]
	.loc 1 216 22
	mov	rax, QWORD PTR 40[rax]
	.loc 1 216 28
	mov	eax, DWORD PTR [rax]
	.loc 1 216 12
	cmp	eax, 3
	jne	.L73
	.loc 1 217 5
	lea	rdi, .LC39[rip]
	call	puts@PLT
	.loc 1 224 4
	jmp	.L48
.L73:
	.loc 1 219 5
	lea	rdi, .LC40[rip]
	call	puts@PLT
	.loc 1 224 4
	jmp	.L48
.L54:
	.loc 1 226 4
	mov	rax, QWORD PTR -8[rbp]
	mov	eax, DWORD PTR 48[rax]
	mov	esi, eax
	lea	rdi, .LC41[rip]
	mov	eax, 0
	call	printf@PLT
	.loc 1 227 4
	lea	rdi, .LC0[rip]
	call	puts@PLT
	.loc 1 228 4
	jmp	.L48
.L66:
	.loc 1 230 4
	mov	rax, QWORD PTR -8[rbp]
	mov	rax, QWORD PTR 8[rax]
	mov	rdi, rax
	call	gen_address
	.loc 1 231 4
	mov	rax, QWORD PTR -8[rbp]
	mov	rax, QWORD PTR 16[rax]
	mov	rdi, rax
	call	gen_expr
	.loc 1 233 4
	lea	rdi, .LC8[rip]
	call	puts@PLT
	.loc 1 234 4
	lea	rdi, .LC9[rip]
	call	puts@PLT
	.loc 1 235 11
	mov	rax, QWORD PTR -8[rbp]
	mov	rax, QWORD PTR 8[rax]
	.loc 1 235 16
	mov	rax, QWORD PTR 40[rax]
	.loc 1 235 22
	mov	eax, DWORD PTR [rax]
	.loc 1 235 6
	cmp	eax, 2
	ja	.L74
	.loc 1 236 5
	lea	rdi, .LC38[rip]
	call	puts@PLT
	jmp	.L75
.L74:
	.loc 1 237 17
	mov	rax, QWORD PTR -8[rbp]
	mov	rax, QWORD PTR 8[rax]
	.loc 1 237 22
	mov	rax, QWORD PTR 40[rax]
	.loc 1 237 28
	mov	eax, DWORD PTR [rax]
	.loc 1 237 12
	cmp	eax, 3
	jne	.L76
	.loc 1 238 5
	lea	rdi, .LC39[rip]
	call	puts@PLT
	jmp	.L75
.L76:
	.loc 1 240 5
	lea	rdi, .LC40[rip]
	call	puts@PLT
.L75:
	.loc 1 243 4
	lea	rdi, .LC42[rip]
	call	puts@PLT
	.loc 1 244 4
	jmp	.L48
.L65:
	.loc 1 247 4
	mov	rax, QWORD PTR -8[rbp]
	mov	rax, QWORD PTR 8[rax]
	mov	rdi, rax
	call	gen_address
	.loc 1 248 17
	mov	rax, QWORD PTR -8[rbp]
	mov	rax, QWORD PTR 16[rax]
	.loc 1 248 4
	mov	rax, QWORD PTR 16[rax]
	mov	rdi, rax
	call	gen_expr
	.loc 1 251 4
	lea	rdi, .LC8[rip]
	call	puts@PLT
	.loc 1 252 4
	lea	rdi, .LC9[rip]
	call	puts@PLT
	.loc 1 253 4
	lea	rdi, .LC0[rip]
	call	puts@PLT
	.loc 1 254 4
	lea	rdi, .LC30[rip]
	call	puts@PLT
	.loc 1 256 4
	mov	rax, QWORD PTR -8[rbp]
	mov	rax, QWORD PTR 16[rax]
	mov	rdi, rax
	call	gen_calc
	.loc 1 257 4
	lea	rdi, .LC0[rip]
	call	puts@PLT
	.loc 1 260 4
	lea	rdi, .LC8[rip]
	call	puts@PLT
	.loc 1 261 4
	lea	rdi, .LC9[rip]
	call	puts@PLT
	.loc 1 262 11
	mov	rax, QWORD PTR -8[rbp]
	mov	rax, QWORD PTR 8[rax]
	.loc 1 262 16
	mov	rax, QWORD PTR 40[rax]
	.loc 1 262 22
	mov	eax, DWORD PTR [rax]
	.loc 1 262 6
	cmp	eax, 2
	ja	.L77
	.loc 1 263 12
	mov	rax, QWORD PTR -8[rbp]
	mov	rax, QWORD PTR 8[rax]
	.loc 1 263 17
	mov	rax, QWORD PTR 40[rax]
	.loc 1 263 23
	mov	eax, DWORD PTR [rax]
	.loc 1 263 7
	cmp	eax, 1
	jne	.L78
	.loc 1 264 6
	lea	rdi, .LC34[rip]
	call	puts@PLT
	.loc 1 265 6
	lea	rdi, .LC35[rip]
	call	puts@PLT
	.loc 1 266 6
	lea	rdi, .LC36[rip]
	call	puts@PLT
	.loc 1 267 6
	lea	rdi, .LC37[rip]
	call	puts@PLT
.L78:
	.loc 1 269 5
	lea	rdi, .LC38[rip]
	call	puts@PLT
	jmp	.L79
.L77:
	.loc 1 270 17
	mov	rax, QWORD PTR -8[rbp]
	mov	rax, QWORD PTR 8[rax]
	.loc 1 270 22
	mov	rax, QWORD PTR 40[rax]
	.loc 1 270 28
	mov	eax, DWORD PTR [rax]
	.loc 1 270 12
	cmp	eax, 3
	jne	.L80
	.loc 1 271 5
	lea	rdi, .LC39[rip]
	call	puts@PLT
	jmp	.L79
.L80:
	.loc 1 273 5
	lea	rdi, .LC40[rip]
	call	puts@PLT
.L79:
	.loc 1 276 4
	lea	rdi, .LC42[rip]
	call	puts@PLT
	.loc 1 277 4
	jmp	.L48
.L63:
	.loc 1 280 4
	mov	rax, QWORD PTR -8[rbp]
	mov	rdi, rax
	call	gen_struc
	.loc 1 282 11
	mov	rax, QWORD PTR -8[rbp]
	mov	rax, QWORD PTR 40[rax]
	.loc 1 282 17
	mov	eax, DWORD PTR [rax]
	.loc 1 282 6
	cmp	eax, 5
	je	.L84
	.loc 1 282 38 discriminator 1
	mov	rax, QWORD PTR -8[rbp]
	mov	rax, QWORD PTR 40[rax]
	.loc 1 282 44 discriminator 1
	mov	eax, DWORD PTR [rax]
	.loc 1 282 31 discriminator 1
	cmp	eax, 6
	je	.L84
	.loc 1 283 5
	lea	rdi, .LC9[rip]
	call	puts@PLT
	.loc 1 284 5
	lea	rdi, .LC33[rip]
	call	puts@PLT
	.loc 1 286 4
	jmp	.L84
.L50:
	.loc 1 289 4
	mov	rax, QWORD PTR -8[rbp]
	mov	rax, QWORD PTR 8[rax]
	mov	rdi, rax
	call	gen_expr
	.loc 1 290 4
	lea	rdi, .LC9[rip]
	call	puts@PLT
	.loc 1 291 4
	lea	rdi, .LC43[rip]
	call	puts@PLT
	.loc 1 292 4
	mov	rax, QWORD PTR -8[rbp]
	mov	eax, DWORD PTR 48[rax]
	mov	esi, eax
	lea	rdi, .LC44[rip]
	mov	eax, 0
	call	printf@PLT
	.loc 1 295 4
	mov	rax, QWORD PTR -8[rbp]
	mov	rax, QWORD PTR 16[rax]
	mov	rdi, rax
	call	gen
	.loc 1 296 4
	mov	rax, QWORD PTR -8[rbp]
	mov	eax, DWORD PTR 48[rax]
	mov	esi, eax
	lea	rdi, .LC45[rip]
	mov	eax, 0
	call	printf@PLT
	.loc 1 297 4
	mov	rax, QWORD PTR -8[rbp]
	mov	eax, DWORD PTR 48[rax]
	mov	esi, eax
	lea	rdi, .LC46[rip]
	mov	eax, 0
	call	printf@PLT
	.loc 1 300 4
	mov	rax, QWORD PTR -8[rbp]
	mov	rax, QWORD PTR 24[rax]
	mov	rdi, rax
	call	gen
	.loc 1 301 4
	mov	rax, QWORD PTR -8[rbp]
	mov	eax, DWORD PTR 48[rax]
	mov	esi, eax
	lea	rdi, .LC47[rip]
	mov	eax, 0
	call	printf@PLT
	.loc 1 302 4
	lea	rdi, .LC0[rip]
	call	puts@PLT
	.loc 1 303 4
	jmp	.L48
.L61:
	.loc 1 305 4
	mov	rax, QWORD PTR -8[rbp]
	mov	rax, QWORD PTR 16[rax]
	mov	rdi, rax
	call	gen_expr
	.loc 1 306 4
	lea	rdi, .LC9[rip]
	call	puts@PLT
	.loc 1 307 4
	lea	rdi, .LC43[rip]
	call	puts@PLT
	.loc 1 308 4
	lea	rdi, .LC24[rip]
	call	puts@PLT
	.loc 1 309 4
	lea	rdi, .LC22[rip]
	call	puts@PLT
	.loc 1 310 4
	lea	rdi, .LC0[rip]
	call	puts@PLT
	.loc 1 311 4
	jmp	.L48
.L60:
	.loc 1 313 4
	mov	rax, QWORD PTR -8[rbp]
	mov	rax, QWORD PTR 16[rax]
	mov	rdi, rax
	call	gen_address
	.loc 1 314 4
	jmp	.L48
.L59:
	.loc 1 316 4
	mov	rax, QWORD PTR -8[rbp]
	mov	rax, QWORD PTR 16[rax]
	mov	rdi, rax
	call	gen_expr
	.loc 1 317 4
	lea	rdi, .LC9[rip]
	call	puts@PLT
	.loc 1 318 11
	mov	rax, QWORD PTR -8[rbp]
	mov	rax, QWORD PTR 40[rax]
	.loc 1 318 17
	mov	eax, DWORD PTR [rax]
	.loc 1 318 6
	cmp	eax, 2
	ja	.L82
	.loc 1 319 5
	lea	rdi, .LC31[rip]
	call	puts@PLT
	.loc 1 320 5
	lea	rdi, .LC32[rip]
	call	puts@PLT
	jmp	.L83
.L82:
	.loc 1 322 5
	lea	rdi, .LC30[rip]
	call	puts@PLT
.L83:
	.loc 1 324 4
	lea	rdi, .LC0[rip]
	call	puts@PLT
	.loc 1 325 4
	jmp	.L48
.L52:
	.loc 1 327 4
	mov	rax, QWORD PTR -8[rbp]
	mov	rax, QWORD PTR 16[rax]
	mov	rdi, rax
	call	gen_args
	.loc 1 329 4
	lea	rdi, .LC48[rip]
	call	puts@PLT
	.loc 1 330 4
	lea	rdi, .LC49[rip]
	call	puts@PLT
	.loc 1 331 4
	lea	rdi, .LC50[rip]
	call	puts@PLT
	.loc 1 333 4
	mov	rax, QWORD PTR -8[rbp]
	mov	rdx, QWORD PTR 56[rax]
	mov	rax, QWORD PTR -8[rbp]
	mov	eax, DWORD PTR 48[rax]
	mov	esi, eax
	lea	rdi, .LC51[rip]
	mov	eax, 0
	call	printf@PLT
	.loc 1 335 4
	lea	rdi, .LC52[rip]
	call	puts@PLT
	.loc 1 336 4
	lea	rdi, .LC53[rip]
	call	puts@PLT
	.loc 1 338 4
	lea	rdi, .LC0[rip]
	call	puts@PLT
	.loc 1 339 4
	jmp	.L48
.L49:
	.loc 1 342 4
	mov	rax, QWORD PTR -8[rbp]
	mov	rax, QWORD PTR 8[rax]
	mov	rdi, rax
	call	gen_expr
	.loc 1 344 4
	mov	rax, QWORD PTR -8[rbp]
	mov	rax, QWORD PTR 16[rax]
	mov	rdi, rax
	call	gen_expr
	.loc 1 347 4
	lea	rdi, .LC8[rip]
	call	puts@PLT
	.loc 1 348 4
	lea	rdi, .LC9[rip]
	call	puts@PLT
	.loc 1 351 4
	mov	rax, QWORD PTR -8[rbp]
	mov	rdi, rax
	call	gen_calc
	.loc 1 354 4
	lea	rdi, .LC0[rip]
	call	puts@PLT
	jmp	.L48
.L84:
	.loc 1 286 4
	nop
.L48:
	.loc 1 356 1
	leave
	.cfi_def_cfa 7, 8
	ret
	.cfi_endproc
.LFE8:
	.size	gen_expr, .-gen_expr
	.section	.rodata
.LC54:
	.string	"\tje .LifEnd%03d\n"
.LC55:
	.string	"\tjne .LcaseBegin%03d\n"
.LC56:
	.string	"\tjmp .LcaseBegin%03d\n"
.LC57:
	.string	".LloopEnd%03d:\n"
.LC58:
	.string	".LloopBegin%03d:\n"
.LC59:
	.string	"\tje .LloopEnd%03d\n"
.LC60:
	.string	".LloopCont%03d:\n"
.LC61:
	.string	"\tjmp .LloopBegin%03d\n"
.LC62:
	.string	"\tjmp .LloopCont%03d\n"
.LC63:
	.string	"\tjmp .LloopEnd%03d\n"
.LC64:
	.string	".LcaseBegin%03d:\n"
.LC65:
	.string	"\tpush %s\n"
.LC66:
	.string	"\tret"
	.text
	.globl	gen
	.type	gen, @function
gen:
.LFB9:
	.loc 1 358 21
	.cfi_startproc
	push	rbp
	.cfi_def_cfa_offset 16
	.cfi_offset 6, -16
	mov	rbp, rsp
	.cfi_def_cfa_register 6
	sub	rsp, 48
	mov	QWORD PTR -40[rbp], rdi
	.loc 1 360 7
	mov	DWORD PTR -32[rbp], 6906994
	mov	DWORD PTR -28[rbp], 6910834
	mov	DWORD PTR -24[rbp], 7890034
	mov	DWORD PTR -20[rbp], 7889778
	mov	DWORD PTR -16[rbp], 14450
	mov	DWORD PTR -12[rbp], 14706
	.loc 1 363 13
	mov	rax, QWORD PTR -40[rbp]
	mov	eax, DWORD PTR [rax]
	sub	eax, 29
	cmp	eax, 14
	ja	.L86
	mov	eax, eax
	lea	rdx, 0[0+rax*4]
	lea	rax, .L88[rip]
	mov	eax, DWORD PTR [rdx+rax]
	cdqe
	lea	rdx, .L88[rip]
	add	rax, rdx
	jmp	rax
	.section	.rodata
	.align 4
	.align 4
.L88:
	.long	.L100-.L88
	.long	.L86-.L88
	.long	.L99-.L88
	.long	.L109-.L88
	.long	.L97-.L88
	.long	.L86-.L88
	.long	.L96-.L88
	.long	.L95-.L88
	.long	.L94-.L88
	.long	.L93-.L88
	.long	.L92-.L88
	.long	.L91-.L88
	.long	.L90-.L88
	.long	.L89-.L88
	.long	.L105-.L88
	.text
.L97:
	.loc 1 368 4
	mov	rax, QWORD PTR -40[rbp]
	mov	rax, QWORD PTR 8[rax]
	mov	rdi, rax
	call	gen
	.loc 1 369 4
	lea	rdi, .LC43[rip]
	call	puts@PLT
	.loc 1 370 4
	mov	rax, QWORD PTR -40[rbp]
	mov	eax, DWORD PTR 48[rax]
	mov	esi, eax
	lea	rdi, .LC54[rip]
	mov	eax, 0
	call	printf@PLT
	.loc 1 371 4
	mov	rax, QWORD PTR -40[rbp]
	mov	rax, QWORD PTR 16[rax]
	mov	rdi, rax
	call	gen
	.loc 1 373 4
	mov	rax, QWORD PTR -40[rbp]
	mov	eax, DWORD PTR 48[rax]
	mov	esi, eax
	lea	rdi, .LC47[rip]
	mov	eax, 0
	call	printf@PLT
	.loc 1 374 4
	jmp	.L85
.L96:
	.loc 1 377 4
	mov	rax, QWORD PTR -40[rbp]
	mov	rax, QWORD PTR 8[rax]
	mov	rdi, rax
	call	gen
	.loc 1 378 4
	lea	rdi, .LC43[rip]
	call	puts@PLT
	.loc 1 379 4
	mov	rax, QWORD PTR -40[rbp]
	mov	eax, DWORD PTR 48[rax]
	mov	esi, eax
	lea	rdi, .LC44[rip]
	mov	eax, 0
	call	printf@PLT
	.loc 1 382 12
	mov	rax, QWORD PTR -40[rbp]
	mov	rax, QWORD PTR 16[rax]
	.loc 1 382 4
	mov	rax, QWORD PTR 8[rax]
	mov	rdi, rax
	call	gen
	.loc 1 383 4
	mov	rax, QWORD PTR -40[rbp]
	mov	eax, DWORD PTR 48[rax]
	mov	esi, eax
	lea	rdi, .LC45[rip]
	mov	eax, 0
	call	printf@PLT
	.loc 1 384 4
	mov	rax, QWORD PTR -40[rbp]
	mov	eax, DWORD PTR 48[rax]
	mov	esi, eax
	lea	rdi, .LC46[rip]
	mov	eax, 0
	call	printf@PLT
	.loc 1 387 12
	mov	rax, QWORD PTR -40[rbp]
	mov	rax, QWORD PTR 16[rax]
	.loc 1 387 4
	mov	rax, QWORD PTR 16[rax]
	mov	rdi, rax
	call	gen
	.loc 1 388 4
	mov	rax, QWORD PTR -40[rbp]
	mov	eax, DWORD PTR 48[rax]
	mov	esi, eax
	lea	rdi, .LC47[rip]
	mov	eax, 0
	call	printf@PLT
	.loc 1 389 4
	jmp	.L85
.L95:
	.loc 1 392 10
	mov	rax, QWORD PTR -40[rbp]
	mov	rax, QWORD PTR 24[rax]
	mov	QWORD PTR -8[rbp], rax
	.loc 1 393 9
	jmp	.L102
.L103:
	.loc 1 394 5
	mov	rax, QWORD PTR -8[rbp]
	mov	rdi, rax
	call	gen
	.loc 1 396 5
	lea	rdi, .LC43[rip]
	call	puts@PLT
	.loc 1 397 5
	mov	rax, QWORD PTR -8[rbp]
	mov	eax, DWORD PTR 48[rax]
	mov	esi, eax
	lea	rdi, .LC55[rip]
	mov	eax, 0
	call	printf@PLT
	.loc 1 398 11
	mov	rax, QWORD PTR -8[rbp]
	mov	rax, QWORD PTR 24[rax]
	mov	QWORD PTR -8[rbp], rax
.L102:
	.loc 1 393 9
	cmp	QWORD PTR -8[rbp], 0
	jne	.L103
	.loc 1 402 11
	mov	rax, QWORD PTR -40[rbp]
	mov	rax, QWORD PTR 8[rax]
	.loc 1 402 6
	test	rax, rax
	je	.L104
	.loc 1 403 42
	mov	rax, QWORD PTR -40[rbp]
	mov	rax, QWORD PTR 8[rax]
	.loc 1 403 5
	mov	eax, DWORD PTR 48[rax]
	mov	esi, eax
	lea	rdi, .LC56[rip]
	mov	eax, 0
	call	printf@PLT
.L104:
	.loc 1 407 4
	mov	rax, QWORD PTR -40[rbp]
	mov	rax, QWORD PTR 16[rax]
	mov	rdi, rax
	call	gen
	.loc 1 409 4
	mov	rax, QWORD PTR -40[rbp]
	mov	eax, DWORD PTR 48[rax]
	mov	esi, eax
	lea	rdi, .LC57[rip]
	mov	eax, 0
	call	printf@PLT
	.loc 1 410 4
	jmp	.L85
.L94:
	.loc 1 413 4
	mov	rax, QWORD PTR -40[rbp]
	mov	rax, QWORD PTR 8[rax]
	mov	rdi, rax
	call	gen
	.loc 1 416 4
	mov	rax, QWORD PTR -40[rbp]
	mov	eax, DWORD PTR 48[rax]
	mov	esi, eax
	lea	rdi, .LC58[rip]
	mov	eax, 0
	call	printf@PLT
	.loc 1 417 12
	mov	rax, QWORD PTR -40[rbp]
	mov	rax, QWORD PTR 8[rax]
	.loc 1 417 4
	mov	rax, QWORD PTR 24[rax]
	mov	rdi, rax
	call	gen
	.loc 1 418 4
	lea	rdi, .LC43[rip]
	call	puts@PLT
	.loc 1 419 4
	mov	rax, QWORD PTR -40[rbp]
	mov	eax, DWORD PTR 48[rax]
	mov	esi, eax
	lea	rdi, .LC59[rip]
	mov	eax, 0
	call	printf@PLT
	.loc 1 422 4
	mov	rax, QWORD PTR -40[rbp]
	mov	rax, QWORD PTR 16[rax]
	mov	rdi, rax
	call	gen
	.loc 1 425 4
	mov	rax, QWORD PTR -40[rbp]
	mov	eax, DWORD PTR 48[rax]
	mov	esi, eax
	lea	rdi, .LC60[rip]
	mov	eax, 0
	call	printf@PLT
	.loc 1 426 12
	mov	rax, QWORD PTR -40[rbp]
	mov	rax, QWORD PTR 8[rax]
	.loc 1 426 17
	mov	rax, QWORD PTR 24[rax]
	.loc 1 426 4
	mov	rax, QWORD PTR 24[rax]
	mov	rdi, rax
	call	gen
	.loc 1 429 4
	mov	rax, QWORD PTR -40[rbp]
	mov	eax, DWORD PTR 48[rax]
	mov	esi, eax
	lea	rdi, .LC61[rip]
	mov	eax, 0
	call	printf@PLT
	.loc 1 430 4
	mov	rax, QWORD PTR -40[rbp]
	mov	eax, DWORD PTR 48[rax]
	mov	esi, eax
	lea	rdi, .LC57[rip]
	mov	eax, 0
	call	printf@PLT
	.loc 1 431 4
	jmp	.L85
.L93:
	.loc 1 434 4
	mov	rax, QWORD PTR -40[rbp]
	mov	eax, DWORD PTR 48[rax]
	mov	esi, eax
	lea	rdi, .LC58[rip]
	mov	eax, 0
	call	printf@PLT
	.loc 1 435 4
	mov	rax, QWORD PTR -40[rbp]
	mov	rax, QWORD PTR 8[rax]
	mov	rdi, rax
	call	gen
	.loc 1 436 4
	lea	rdi, .LC43[rip]
	call	puts@PLT
	.loc 1 437 4
	mov	rax, QWORD PTR -40[rbp]
	mov	eax, DWORD PTR 48[rax]
	mov	esi, eax
	lea	rdi, .LC59[rip]
	mov	eax, 0
	call	printf@PLT
	.loc 1 440 4
	mov	rax, QWORD PTR -40[rbp]
	mov	rax, QWORD PTR 16[rax]
	mov	rdi, rax
	call	gen
	.loc 1 443 4
	mov	rax, QWORD PTR -40[rbp]
	mov	eax, DWORD PTR 48[rax]
	mov	esi, eax
	lea	rdi, .LC60[rip]
	mov	eax, 0
	call	printf@PLT
	.loc 1 444 4
	mov	rax, QWORD PTR -40[rbp]
	mov	eax, DWORD PTR 48[rax]
	mov	esi, eax
	lea	rdi, .LC61[rip]
	mov	eax, 0
	call	printf@PLT
	.loc 1 445 4
	mov	rax, QWORD PTR -40[rbp]
	mov	eax, DWORD PTR 48[rax]
	mov	esi, eax
	lea	rdi, .LC57[rip]
	mov	eax, 0
	call	printf@PLT
	.loc 1 446 4
	jmp	.L85
.L92:
	.loc 1 449 4
	mov	rax, QWORD PTR -40[rbp]
	mov	eax, DWORD PTR 48[rax]
	mov	esi, eax
	lea	rdi, .LC58[rip]
	mov	eax, 0
	call	printf@PLT
	.loc 1 450 4
	mov	rax, QWORD PTR -40[rbp]
	mov	rax, QWORD PTR 16[rax]
	mov	rdi, rax
	call	gen
	.loc 1 453 4
	mov	rax, QWORD PTR -40[rbp]
	mov	rax, QWORD PTR 8[rax]
	mov	rdi, rax
	call	gen
	.loc 1 454 4
	lea	rdi, .LC43[rip]
	call	puts@PLT
	.loc 1 456 4
	mov	rax, QWORD PTR -40[rbp]
	mov	eax, DWORD PTR 48[rax]
	mov	esi, eax
	lea	rdi, .LC59[rip]
	mov	eax, 0
	call	printf@PLT
	.loc 1 459 4
	mov	rax, QWORD PTR -40[rbp]
	mov	eax, DWORD PTR 48[rax]
	mov	esi, eax
	lea	rdi, .LC60[rip]
	mov	eax, 0
	call	printf@PLT
	.loc 1 460 4
	mov	rax, QWORD PTR -40[rbp]
	mov	eax, DWORD PTR 48[rax]
	mov	esi, eax
	lea	rdi, .LC61[rip]
	mov	eax, 0
	call	printf@PLT
	.loc 1 461 4
	mov	rax, QWORD PTR -40[rbp]
	mov	eax, DWORD PTR 48[rax]
	mov	esi, eax
	lea	rdi, .LC57[rip]
	mov	eax, 0
	call	printf@PLT
	.loc 1 462 4
	jmp	.L85
.L90:
	.loc 1 464 4
	mov	rax, QWORD PTR -40[rbp]
	mov	eax, DWORD PTR 48[rax]
	mov	esi, eax
	lea	rdi, .LC62[rip]
	mov	eax, 0
	call	printf@PLT
	.loc 1 465 4
	jmp	.L85
.L91:
	.loc 1 467 4
	mov	rax, QWORD PTR -40[rbp]
	mov	eax, DWORD PTR 48[rax]
	mov	esi, eax
	lea	rdi, .LC63[rip]
	mov	eax, 0
	call	printf@PLT
	.loc 1 468 4
	jmp	.L85
.L99:
	.loc 1 470 4
	mov	rax, QWORD PTR -40[rbp]
	mov	rax, QWORD PTR 16[rax]
	mov	rdi, rax
	call	expand_block_code
	.loc 1 471 4
	jmp	.L85
.L100:
	.loc 1 473 4
	mov	rax, QWORD PTR -40[rbp]
	mov	eax, DWORD PTR 48[rax]
	mov	esi, eax
	lea	rdi, .LC64[rip]
	mov	eax, 0
	call	printf@PLT
	.loc 1 474 4
	mov	rax, QWORD PTR -40[rbp]
	mov	rax, QWORD PTR 16[rax]
	mov	rdi, rax
	call	gen
	.loc 1 475 4
	jmp	.L85
.L106:
	.loc 1 479 34
	mov	rax, QWORD PTR -40[rbp]
	mov	edx, DWORD PTR 48[rax]
	.loc 1 479 29
	lea	rax, -32[rbp]
	movsx	rdx, edx
	sal	rdx, 2
	add	rax, rdx
	.loc 1 479 5
	mov	rsi, rax
	lea	rdi, .LC65[rip]
	mov	eax, 0
	call	printf@PLT
	.loc 1 480 5
	mov	rax, QWORD PTR -40[rbp]
	mov	rax, QWORD PTR 16[rax]
	mov	rdi, rax
	call	gen_lvar
	.loc 1 481 5
	lea	rdi, .LC9[rip]
	call	puts@PLT
	.loc 1 482 5
	lea	rdi, .LC8[rip]
	call	puts@PLT
	.loc 1 483 5
	lea	rdi, .LC40[rip]
	call	puts@PLT
	.loc 1 484 5
	lea	rdi, .LC42[rip]
	call	puts@PLT
	.loc 1 486 5
	lea	rdi, .LC9[rip]
	call	puts@PLT
	.loc 1 487 9
	mov	rax, QWORD PTR -40[rbp]
	mov	rax, QWORD PTR 24[rax]
	mov	QWORD PTR -40[rbp], rax
.L105:
	.loc 1 477 9
	cmp	QWORD PTR -40[rbp], 0
	jne	.L106
	.loc 1 490 4
	jmp	.L85
.L89:
	.loc 1 492 11
	mov	rax, QWORD PTR -40[rbp]
	mov	rax, QWORD PTR 16[rax]
	.loc 1 492 6
	test	rax, rax
	je	.L107
	.loc 1 493 5
	mov	rax, QWORD PTR -40[rbp]
	mov	rax, QWORD PTR 16[rax]
	mov	rdi, rax
	call	gen_expr
.L107:
	.loc 1 495 4
	lea	rdi, .LC9[rip]
	call	puts@PLT
	.loc 1 496 4
	lea	rdi, .LC52[rip]
	call	puts@PLT
	.loc 1 497 4
	lea	rdi, .LC53[rip]
	call	puts@PLT
	.loc 1 498 4
	lea	rdi, .LC66[rip]
	call	puts@PLT
	.loc 1 499 4
	jmp	.L85
.L86:
	.loc 1 501 4
	mov	rax, QWORD PTR -40[rbp]
	mov	rdi, rax
	call	gen_expr
	.loc 1 502 4
	lea	rdi, .LC9[rip]
	call	puts@PLT
	jmp	.L85
.L109:
	.loc 1 366 4
	nop
.L85:
	.loc 1 504 1
	leave
	.cfi_def_cfa 7, 8
	ret
	.cfi_endproc
.LFE9:
	.size	gen, .-gen
.Letext0:
	.file 2 "/usr/lib/gcc/x86_64-linux-gnu/9/include/stddef.h"
	.file 3 "/usr/include/x86_64-linux-gnu/bits/types.h"
	.file 4 "/usr/include/x86_64-linux-gnu/bits/types/struct_FILE.h"
	.file 5 "/usr/include/x86_64-linux-gnu/bits/types/FILE.h"
	.file 6 "/usr/include/stdio.h"
	.file 7 "../include/cc_sakura.h"
	.section	.note.GNU-stack,"",@progbits
