	.file	"parse_sys.c"
	.intel_syntax noprefix
	.text
.Ltext0:
	.section	.rodata
.LC0:
	.string	"%s\n"
.LC1:
	.string	" "
.LC2:
	.string	"%*s"
.LC3:
	.string	"^ "
	.text
	.globl	error
	.type	error, @function
error:
.LFB0:
	.file 1 "../src/parse_sys.c"
	.loc 1 6 38
	.cfi_startproc
	push	rbp
	.cfi_def_cfa_offset 16
	.cfi_offset 6, -16
	mov	rbp, rsp
	.cfi_def_cfa_register 6
	sub	rsp, 224
	mov	QWORD PTR -216[rbp], rdi
	mov	QWORD PTR -224[rbp], rsi
	mov	QWORD PTR -160[rbp], rdx
	mov	QWORD PTR -152[rbp], rcx
	mov	QWORD PTR -144[rbp], r8
	mov	QWORD PTR -136[rbp], r9
	test	al, al
	je	.L3
	movaps	XMMWORD PTR -128[rbp], xmm0
	movaps	XMMWORD PTR -112[rbp], xmm1
	movaps	XMMWORD PTR -96[rbp], xmm2
	movaps	XMMWORD PTR -80[rbp], xmm3
	movaps	XMMWORD PTR -64[rbp], xmm4
	movaps	XMMWORD PTR -48[rbp], xmm5
	movaps	XMMWORD PTR -32[rbp], xmm6
	movaps	XMMWORD PTR -16[rbp], xmm7
.L3:
	.loc 1 8 2
	mov	DWORD PTR -208[rbp], 16
	mov	DWORD PTR -204[rbp], 48
	lea	rax, 16[rbp]
	mov	QWORD PTR -200[rbp], rax
	lea	rax, -176[rbp]
	mov	QWORD PTR -192[rbp], rax
	.loc 1 10 15
	mov	rax, QWORD PTR user_input[rip]
	mov	rdx, QWORD PTR -216[rbp]
	sub	rdx, rax
	mov	rax, rdx
	.loc 1 10 6
	mov	DWORD PTR -180[rbp], eax
	.loc 1 11 2
	mov	rdx, QWORD PTR user_input[rip]
	mov	rax, QWORD PTR stderr[rip]
	lea	rsi, .LC0[rip]
	mov	rdi, rax
	mov	eax, 0
	call	fprintf@PLT
	.loc 1 12 2
	mov	rax, QWORD PTR stderr[rip]
	mov	edx, DWORD PTR -180[rbp]
	lea	rcx, .LC1[rip]
	lea	rsi, .LC2[rip]
	mov	rdi, rax
	mov	eax, 0
	call	fprintf@PLT
	.loc 1 13 2
	mov	rax, QWORD PTR stderr[rip]
	mov	rcx, rax
	mov	edx, 2
	mov	esi, 1
	lea	rdi, .LC3[rip]
	call	fwrite@PLT
	.loc 1 14 2
	mov	rax, QWORD PTR stderr[rip]
	lea	rdx, -208[rbp]
	mov	rcx, QWORD PTR -224[rbp]
	mov	rsi, rcx
	mov	rdi, rax
	call	vfprintf@PLT
	.loc 1 15 2
	mov	rax, QWORD PTR stderr[rip]
	mov	rsi, rax
	mov	edi, 10
	call	fputc@PLT
	.loc 1 16 2
	mov	edi, 1
	call	exit@PLT
	.cfi_endproc
.LFE0:
	.size	error, .-error
	.section	.rodata
.LC4:
	.string	"%s:%d "
.LC5:
	.string	"%.*s\n"
.LC6:
	.string	"^ %s\n"
	.text
	.globl	error_at
	.type	error_at, @function
error_at:
.LFB1:
	.loc 1 19 36
	.cfi_startproc
	push	rbp
	.cfi_def_cfa_offset 16
	.cfi_offset 6, -16
	mov	rbp, rsp
	.cfi_def_cfa_register 6
	sub	rsp, 64
	mov	QWORD PTR -56[rbp], rdi
	mov	QWORD PTR -64[rbp], rsi
	.loc 1 20 7
	jmp	.L5
.L7:
	.loc 1 20 71 discriminator 5
	sub	QWORD PTR -56[rbp], 1
.L5:
	.loc 1 20 20 discriminator 1
	mov	rax, QWORD PTR user_input[rip]
	.loc 1 20 7 discriminator 1
	cmp	QWORD PTR -56[rbp], rax
	jbe	.L6
	.loc 1 20 34 discriminator 2
	mov	rax, QWORD PTR -56[rbp]
	sub	rax, 1
	movzx	eax, BYTE PTR [rax]
	.loc 1 20 27 discriminator 2
	cmp	al, 10
	je	.L7
	.loc 1 20 53 discriminator 4
	mov	rax, QWORD PTR -56[rbp]
	sub	rax, 1
	movzx	eax, BYTE PTR [rax]
	.loc 1 20 47 discriminator 4
	cmp	al, 9
	je	.L7
.L6:
	.loc 1 22 8
	mov	rax, QWORD PTR -56[rbp]
	mov	QWORD PTR -8[rbp], rax
	.loc 1 23 7
	jmp	.L8
.L10:
	.loc 1 23 58 discriminator 3
	sub	QWORD PTR -8[rbp], 1
.L8:
	.loc 1 23 20 discriminator 1
	mov	rax, QWORD PTR user_input[rip]
	.loc 1 23 7 discriminator 1
	cmp	QWORD PTR -8[rbp], rax
	jbe	.L9
	.loc 1 23 38 discriminator 2
	mov	rax, QWORD PTR -8[rbp]
	sub	rax, 1
	movzx	eax, BYTE PTR [rax]
	.loc 1 23 29 discriminator 2
	cmp	al, 10
	jne	.L10
.L9:
	.loc 1 25 8
	mov	rax, QWORD PTR -56[rbp]
	mov	QWORD PTR -16[rbp], rax
	.loc 1 26 7
	jmp	.L11
.L12:
	.loc 1 26 25 discriminator 2
	add	QWORD PTR -16[rbp], 1
.L11:
	.loc 1 26 8 discriminator 1
	mov	rax, QWORD PTR -16[rbp]
	movzx	eax, BYTE PTR [rax]
	.loc 1 26 7 discriminator 1
	cmp	al, 10
	jne	.L12
	.loc 1 28 6
	mov	DWORD PTR -20[rbp], 1
.LBB2:
	.loc 1 29 12
	mov	rax, QWORD PTR user_input[rip]
	mov	QWORD PTR -32[rbp], rax
	.loc 1 29 2
	jmp	.L13
.L15:
	.loc 1 30 6
	mov	rax, QWORD PTR -32[rbp]
	movzx	eax, BYTE PTR [rax]
	.loc 1 30 5
	cmp	al, 10
	jne	.L14
	.loc 1 30 26 discriminator 1
	add	DWORD PTR -20[rbp], 1
.L14:
	.loc 1 29 36 discriminator 2
	add	QWORD PTR -32[rbp], 1
.L13:
	.loc 1 29 2 discriminator 1
	mov	rax, QWORD PTR -32[rbp]
	cmp	rax, QWORD PTR -56[rbp]
	jb	.L15
.LBE2:
	.loc 1 34 7
	jmp	.L16
.L17:
	.loc 1 34 29 discriminator 2
	add	QWORD PTR -8[rbp], 1
.L16:
	.loc 1 34 8 discriminator 1
	mov	rax, QWORD PTR -8[rbp]
	movzx	eax, BYTE PTR [rax]
	.loc 1 34 7 discriminator 1
	cmp	al, 9
	je	.L17
	.loc 1 36 15
	mov	rax, QWORD PTR stderr[rip]
	mov	edx, DWORD PTR -20[rbp]
	mov	ecx, edx
	lea	rdx, filename[rip]
	lea	rsi, .LC4[rip]
	mov	rdi, rax
	mov	eax, 0
	call	fprintf@PLT
	mov	DWORD PTR -36[rbp], eax
	.loc 1 37 37
	mov	rax, QWORD PTR -16[rbp]
	sub	rax, QWORD PTR -8[rbp]
	.loc 1 37 2
	mov	esi, eax
	mov	rax, QWORD PTR stderr[rip]
	mov	rdx, QWORD PTR -8[rbp]
	mov	rcx, rdx
	mov	edx, esi
	lea	rsi, .LC5[rip]
	mov	rdi, rax
	mov	eax, 0
	call	fprintf@PLT
	.loc 1 39 18
	mov	eax, DWORD PTR -36[rbp]
	movsx	rdx, eax
	mov	rax, QWORD PTR -56[rbp]
	add	rax, rdx
	.loc 1 39 22
	sub	rax, QWORD PTR -8[rbp]
	.loc 1 39 6
	mov	DWORD PTR -40[rbp], eax
	.loc 1 40 2
	mov	rax, QWORD PTR stderr[rip]
	mov	edx, DWORD PTR -40[rbp]
	lea	rcx, .LC1[rip]
	lea	rsi, .LC2[rip]
	mov	rdi, rax
	mov	eax, 0
	call	fprintf@PLT
	.loc 1 41 2
	mov	rax, QWORD PTR stderr[rip]
	mov	rdx, QWORD PTR -64[rbp]
	lea	rsi, .LC6[rip]
	mov	rdi, rax
	mov	eax, 0
	call	fprintf@PLT
	.loc 1 42 2
	mov	edi, 1
	call	exit@PLT
	.cfi_endproc
.LFE1:
	.size	error_at, .-error_at
	.globl	check
	.type	check, @function
check:
.LFB2:
	.loc 1 45 21
	.cfi_startproc
	push	rbp
	.cfi_def_cfa_offset 16
	.cfi_offset 6, -16
	mov	rbp, rsp
	.cfi_def_cfa_register 6
	sub	rsp, 16
	mov	QWORD PTR -8[rbp], rdi
	.loc 1 47 11
	mov	rax, QWORD PTR token[rip]
	mov	eax, DWORD PTR [rax]
	.loc 1 47 4
	cmp	eax, 1
	je	.L19
	.loc 1 47 41 discriminator 1
	mov	rax, QWORD PTR token[rip]
	mov	eax, DWORD PTR [rax]
	.loc 1 47 33 discriminator 1
	cmp	eax, 13
	jne	.L20
.L19:
	.loc 1 48 6 discriminator 3
	mov	rax, QWORD PTR -8[rbp]
	mov	rdi, rax
	call	strlen@PLT
	.loc 1 48 25 discriminator 3
	mov	rdx, QWORD PTR token[rip]
	mov	edx, DWORD PTR 32[rdx]
	movsx	rdx, edx
	.loc 1 47 61 discriminator 3
	cmp	rax, rdx
	jne	.L20
	.loc 1 48 62
	mov	rax, QWORD PTR token[rip]
	mov	eax, DWORD PTR 32[rax]
	.loc 1 48 34
	movsx	rdx, eax
	.loc 1 48 46
	mov	rax, QWORD PTR token[rip]
	mov	rax, QWORD PTR 24[rax]
	.loc 1 48 34
	mov	rcx, QWORD PTR -8[rbp]
	mov	rsi, rcx
	mov	rdi, rax
	call	memcmp@PLT
	.loc 1 48 31
	test	eax, eax
	je	.L21
.L20:
	.loc 1 49 10
	mov	eax, 0
	jmp	.L22
.L21:
	.loc 1 52 9
	mov	eax, 1
.L22:
	.loc 1 53 1
	leave
	.cfi_def_cfa 7, 8
	ret
	.cfi_endproc
.LFE2:
	.size	check, .-check
	.globl	consume
	.type	consume, @function
consume:
.LFB3:
	.loc 1 55 23
	.cfi_startproc
	push	rbp
	.cfi_def_cfa_offset 16
	.cfi_offset 6, -16
	mov	rbp, rsp
	.cfi_def_cfa_register 6
	sub	rsp, 16
	mov	QWORD PTR -8[rbp], rdi
	.loc 1 57 11
	mov	rax, QWORD PTR token[rip]
	mov	eax, DWORD PTR [rax]
	.loc 1 57 4
	cmp	eax, 1
	je	.L24
	.loc 1 57 41 discriminator 1
	mov	rax, QWORD PTR token[rip]
	mov	eax, DWORD PTR [rax]
	.loc 1 57 33 discriminator 1
	cmp	eax, 13
	jne	.L25
.L24:
	.loc 1 58 6 discriminator 3
	mov	rax, QWORD PTR -8[rbp]
	mov	rdi, rax
	call	strlen@PLT
	.loc 1 58 25 discriminator 3
	mov	rdx, QWORD PTR token[rip]
	mov	edx, DWORD PTR 32[rdx]
	movsx	rdx, edx
	.loc 1 57 61 discriminator 3
	cmp	rax, rdx
	jne	.L25
	.loc 1 58 62
	mov	rax, QWORD PTR token[rip]
	mov	eax, DWORD PTR 32[rax]
	.loc 1 58 34
	movsx	rdx, eax
	.loc 1 58 46
	mov	rax, QWORD PTR token[rip]
	mov	rax, QWORD PTR 24[rax]
	.loc 1 58 34
	mov	rcx, QWORD PTR -8[rbp]
	mov	rsi, rcx
	mov	rdi, rax
	call	memcmp@PLT
	.loc 1 58 31
	test	eax, eax
	je	.L26
.L25:
	.loc 1 59 10
	mov	eax, 0
	jmp	.L27
.L26:
	.loc 1 62 15
	mov	rax, QWORD PTR token[rip]
	mov	rax, QWORD PTR 8[rax]
	.loc 1 62 8
	mov	QWORD PTR token[rip], rax
	.loc 1 63 9
	mov	eax, 1
.L27:
	.loc 1 64 1
	leave
	.cfi_def_cfa 7, 8
	ret
	.cfi_endproc
.LFE3:
	.size	consume, .-consume
	.globl	string_len
	.type	string_len, @function
string_len:
.LFB4:
	.loc 1 66 21
	.cfi_startproc
	push	rbp
	.cfi_def_cfa_offset 16
	.cfi_offset 6, -16
	mov	rbp, rsp
	.cfi_def_cfa_register 6
	.loc 1 67 6
	mov	DWORD PTR -4[rbp], 0
	.loc 1 68 7
	jmp	.L29
.L30:
	.loc 1 69 16
	mov	rax, QWORD PTR token[rip]
	mov	rax, QWORD PTR 8[rax]
	.loc 1 69 9
	mov	QWORD PTR token[rip], rax
	.loc 1 70 6
	add	DWORD PTR -4[rbp], 1
.L29:
	.loc 1 68 13
	mov	rax, QWORD PTR token[rip]
	mov	eax, DWORD PTR [rax]
	.loc 1 68 7
	cmp	eax, 14
	je	.L30
	.loc 1 73 9
	mov	eax, DWORD PTR -4[rbp]
	.loc 1 74 1
	pop	rbp
	.cfi_def_cfa 7, 8
	ret
	.cfi_endproc
.LFE4:
	.size	string_len, .-string_len
	.section	.rodata
.LC7:
	.string	"return"
	.text
	.globl	consume_ret
	.type	consume_ret, @function
consume_ret:
.LFB5:
	.loc 1 76 23
	.cfi_startproc
	push	rbp
	.cfi_def_cfa_offset 16
	.cfi_offset 6, -16
	mov	rbp, rsp
	.cfi_def_cfa_register 6
	.loc 1 77 11
	mov	rax, QWORD PTR token[rip]
	mov	eax, DWORD PTR [rax]
	.loc 1 77 4
	cmp	eax, 19
	jne	.L33
	.loc 1 77 41 discriminator 1
	mov	rax, QWORD PTR token[rip]
	mov	eax, DWORD PTR 32[rax]
	.loc 1 77 32 discriminator 1
	cmp	eax, 6
	jne	.L33
	.loc 1 78 40 discriminator 2
	mov	rax, QWORD PTR token[rip]
	mov	eax, DWORD PTR 32[rax]
	.loc 1 78 6 discriminator 2
	movsx	rdx, eax
	.loc 1 78 18 discriminator 2
	mov	rax, QWORD PTR token[rip]
	mov	rax, QWORD PTR 24[rax]
	.loc 1 78 6 discriminator 2
	lea	rsi, .LC7[rip]
	mov	rdi, rax
	call	memcmp@PLT
	.loc 1 77 53 discriminator 2
	test	eax, eax
	je	.L34
.L33:
	.loc 1 79 10
	mov	eax, 0
	jmp	.L35
.L34:
	.loc 1 82 15
	mov	rax, QWORD PTR token[rip]
	mov	rax, QWORD PTR 8[rax]
	.loc 1 82 8
	mov	QWORD PTR token[rip], rax
	.loc 1 83 9
	mov	eax, 1
.L35:
	.loc 1 84 1
	pop	rbp
	.cfi_def_cfa 7, 8
	ret
	.cfi_endproc
.LFE5:
	.size	consume_ret, .-consume_ret
	.globl	consume_reserved_word
	.type	consume_reserved_word, @function
consume_reserved_word:
.LFB6:
	.loc 1 86 58
	.cfi_startproc
	push	rbp
	.cfi_def_cfa_offset 16
	.cfi_offset 6, -16
	mov	rbp, rsp
	.cfi_def_cfa_register 6
	push	rbx
	sub	rsp, 24
	.cfi_offset 3, -24
	mov	QWORD PTR -24[rbp], rdi
	mov	DWORD PTR -28[rbp], esi
	.loc 1 87 10
	mov	rax, QWORD PTR token[rip]
	mov	eax, DWORD PTR [rax]
	.loc 1 87 4
	cmp	DWORD PTR -28[rbp], eax
	jne	.L37
	.loc 1 88 10 discriminator 1
	mov	rax, QWORD PTR token[rip]
	mov	eax, DWORD PTR 32[rax]
	movsx	rbx, eax
	.loc 1 88 19 discriminator 1
	mov	rax, QWORD PTR -24[rbp]
	mov	rdi, rax
	call	strlen@PLT
	.loc 1 87 25 discriminator 1
	cmp	rbx, rax
	jne	.L37
	.loc 1 89 38
	mov	rax, QWORD PTR token[rip]
	mov	eax, DWORD PTR 32[rax]
	.loc 1 89 5
	movsx	rdx, eax
	.loc 1 89 17
	mov	rax, QWORD PTR token[rip]
	mov	rax, QWORD PTR 24[rax]
	.loc 1 89 5
	mov	rcx, QWORD PTR -24[rbp]
	mov	rsi, rcx
	mov	rdi, rax
	call	memcmp@PLT
	.loc 1 88 35
	test	eax, eax
	je	.L38
.L37:
	.loc 1 90 10
	mov	eax, 0
	jmp	.L39
.L38:
	.loc 1 93 15
	mov	rax, QWORD PTR token[rip]
	mov	rax, QWORD PTR 8[rax]
	.loc 1 93 8
	mov	QWORD PTR token[rip], rax
	.loc 1 94 9
	mov	eax, 1
.L39:
	.loc 1 95 1
	add	rsp, 24
	pop	rbx
	pop	rbp
	.cfi_def_cfa 7, 8
	ret
	.cfi_endproc
.LFE6:
	.size	consume_reserved_word, .-consume_reserved_word
	.globl	consume_string
	.type	consume_string, @function
consume_string:
.LFB7:
	.loc 1 97 28
	.cfi_startproc
	push	rbp
	.cfi_def_cfa_offset 16
	.cfi_offset 6, -16
	mov	rbp, rsp
	.cfi_def_cfa_register 6
	sub	rsp, 16
.LBB3:
	.loc 1 99 10
	mov	rax, QWORD PTR token[rip]
	mov	eax, DWORD PTR [rax]
	.loc 1 99 4
	cmp	eax, 14
	jne	.L41
	.loc 1 99 47 discriminator 1
	mov	rax, QWORD PTR token[rip]
	mov	rax, QWORD PTR 24[rax]
	.loc 1 99 40 discriminator 1
	movzx	eax, BYTE PTR [rax]
	.loc 1 99 32 discriminator 1
	movsx	eax, al
	mov	edi, eax
	mov	eax, 0
	call	isascii@PLT
	.loc 1 99 27 discriminator 1
	test	eax, eax
	jne	.L42
.L41:
	.loc 1 100 10
	mov	eax, 0
	jmp	.L43
.L42:
.LBE3:
	.loc 1 103 9
	mov	rax, QWORD PTR token[rip]
	mov	QWORD PTR -16[rbp], rax
	.loc 1 104 6
	mov	DWORD PTR -4[rbp], 0
	.loc 1 105 7
	jmp	.L44
.L45:
	.loc 1 106 10
	add	DWORD PTR -4[rbp], 1
	.loc 1 107 16
	mov	rax, QWORD PTR token[rip]
	mov	rax, QWORD PTR 8[rax]
	.loc 1 107 9
	mov	QWORD PTR token[rip], rax
.L44:
	.loc 1 105 13
	mov	rax, QWORD PTR token[rip]
	mov	eax, DWORD PTR [rax]
	.loc 1 105 7
	cmp	eax, 14
	je	.L45
	.loc 1 110 11
	mov	rax, QWORD PTR -16[rbp]
	mov	edx, DWORD PTR -4[rbp]
	mov	DWORD PTR 32[rax], edx
	.loc 1 112 9
	mov	rax, QWORD PTR -16[rbp]
.L43:
	.loc 1 113 1
	leave
	.cfi_def_cfa 7, 8
	ret
	.cfi_endproc
.LFE7:
	.size	consume_string, .-consume_string
	.globl	consume_ident
	.type	consume_ident, @function
consume_ident:
.LFB8:
	.loc 1 116 27
	.cfi_startproc
	push	rbp
	.cfi_def_cfa_offset 16
	.cfi_offset 6, -16
	mov	rbp, rsp
	.cfi_def_cfa_register 6
	sub	rsp, 32
	.loc 1 118 10
	mov	rax, QWORD PTR token[rip]
	mov	eax, DWORD PTR [rax]
	.loc 1 118 4
	cmp	eax, 2
	jne	.L47
	.loc 1 118 49 discriminator 1
	mov	rax, QWORD PTR token[rip]
	mov	rax, QWORD PTR 24[rax]
	.loc 1 118 42 discriminator 1
	movzx	eax, BYTE PTR [rax]
	.loc 1 118 33 discriminator 1
	movsx	eax, al
	mov	edi, eax
	call	is_alnum@PLT
	.loc 1 118 31 discriminator 1
	xor	eax, 1
	.loc 1 118 29 discriminator 1
	test	al, al
	je	.L48
.L47:
	.loc 1 119 10
	mov	eax, 0
	jmp	.L49
.L48:
	.loc 1 122 9
	mov	rax, QWORD PTR token[rip]
	mov	QWORD PTR -16[rbp], rax
	.loc 1 124 26
	mov	rax, QWORD PTR token[rip]
	.loc 1 124 13
	mov	rax, QWORD PTR 24[rax]
	mov	rdi, rax
	call	len_val@PLT
	mov	DWORD PTR -20[rbp], eax
	.loc 1 125 7
	mov	rax, QWORD PTR token[rip]
	.loc 1 125 13
	mov	edx, DWORD PTR -20[rbp]
	mov	DWORD PTR 32[rax], edx
.LBB4:
	.loc 1 128 10
	mov	DWORD PTR -4[rbp], 0
	.loc 1 128 2
	jmp	.L50
.L51:
	.loc 1 129 16 discriminator 3
	mov	rax, QWORD PTR token[rip]
	mov	rax, QWORD PTR 8[rax]
	.loc 1 129 9 discriminator 3
	mov	QWORD PTR token[rip], rax
	.loc 1 128 26 discriminator 3
	add	DWORD PTR -4[rbp], 1
.L50:
	.loc 1 128 2 discriminator 1
	mov	eax, DWORD PTR -4[rbp]
	cmp	eax, DWORD PTR -20[rbp]
	jl	.L51
.LBE4:
	.loc 1 132 9
	mov	rax, QWORD PTR -16[rbp]
.L49:
	.loc 1 133 1
	leave
	.cfi_def_cfa 7, 8
	ret
	.cfi_endproc
.LFE8:
	.size	consume_ident, .-consume_ident
	.section	.rodata
.LC8:
	.string	"not a charctor."
	.text
	.globl	expect
	.type	expect, @function
expect:
.LFB9:
	.loc 1 135 22
	.cfi_startproc
	push	rbp
	.cfi_def_cfa_offset 16
	.cfi_offset 6, -16
	mov	rbp, rsp
	.cfi_def_cfa_register 6
	sub	rsp, 16
	mov	QWORD PTR -8[rbp], rdi
	.loc 1 137 11
	mov	rax, QWORD PTR token[rip]
	mov	eax, DWORD PTR [rax]
	.loc 1 137 4
	cmp	eax, 1
	je	.L53
	.loc 1 137 41 discriminator 1
	mov	rax, QWORD PTR token[rip]
	mov	eax, DWORD PTR [rax]
	.loc 1 137 33 discriminator 1
	cmp	eax, 13
	jne	.L54
.L53:
	.loc 1 138 6 discriminator 3
	mov	rax, QWORD PTR -8[rbp]
	mov	rdi, rax
	call	strlen@PLT
	.loc 1 138 25 discriminator 3
	mov	rdx, QWORD PTR token[rip]
	mov	edx, DWORD PTR 32[rdx]
	movsx	rdx, edx
	.loc 1 137 60 discriminator 3
	cmp	rax, rdx
	jne	.L54
	.loc 1 139 34
	mov	rax, QWORD PTR token[rip]
	mov	eax, DWORD PTR 32[rax]
	.loc 1 139 6
	movsx	rdx, eax
	.loc 1 139 18
	mov	rax, QWORD PTR token[rip]
	mov	rax, QWORD PTR 24[rax]
	.loc 1 139 6
	mov	rcx, QWORD PTR -8[rbp]
	mov	rsi, rcx
	mov	rdi, rax
	call	memcmp@PLT
	.loc 1 138 30
	test	eax, eax
	je	.L55
.L54:
	.loc 1 140 17
	mov	rax, QWORD PTR token[rip]
	.loc 1 140 3
	mov	rax, QWORD PTR 24[rax]
	lea	rsi, .LC8[rip]
	mov	rdi, rax
	call	error_at
.L55:
	.loc 1 142 15
	mov	rax, QWORD PTR token[rip]
	mov	rax, QWORD PTR 8[rax]
	.loc 1 142 8
	mov	QWORD PTR token[rip], rax
	.loc 1 143 1
	nop
	leave
	.cfi_def_cfa 7, 8
	ret
	.cfi_endproc
.LFE9:
	.size	expect, .-expect
	.section	.rodata
.LC9:
	.string	"not a number"
	.text
	.globl	expect_number
	.type	expect_number, @function
expect_number:
.LFB10:
	.loc 1 145 24
	.cfi_startproc
	push	rbp
	.cfi_def_cfa_offset 16
	.cfi_offset 6, -16
	mov	rbp, rsp
	.cfi_def_cfa_register 6
	sub	rsp, 16
	.loc 1 147 10
	mov	rax, QWORD PTR token[rip]
	mov	eax, DWORD PTR [rax]
	.loc 1 147 4
	cmp	eax, 3
	je	.L57
	.loc 1 148 17
	mov	rax, QWORD PTR token[rip]
	.loc 1 148 3
	mov	rax, QWORD PTR 24[rax]
	lea	rsi, .LC9[rip]
	mov	rdi, rax
	call	error_at
.L57:
	.loc 1 151 17
	mov	rax, QWORD PTR token[rip]
	.loc 1 151 6
	mov	eax, DWORD PTR 16[rax]
	mov	DWORD PTR -4[rbp], eax
	.loc 1 152 17
	mov	rax, QWORD PTR token[rip]
	mov	rax, QWORD PTR 8[rax]
	.loc 1 152 10
	mov	QWORD PTR token[rip], rax
	.loc 1 153 9
	mov	eax, DWORD PTR -4[rbp]
	.loc 1 154 1
	leave
	.cfi_def_cfa 7, 8
	ret
	.cfi_endproc
.LFE10:
	.size	expect_number, .-expect_number
	.globl	label_register
	.type	label_register, @function
label_register:
.LFB11:
	.loc 1 156 48
	.cfi_startproc
	push	rbp
	.cfi_def_cfa_offset 16
	.cfi_offset 6, -16
	mov	rbp, rsp
	.cfi_def_cfa_register 6
	push	rbx
	sub	rsp, 40
	.cfi_offset 3, -24
	mov	QWORD PTR -40[rbp], rdi
	mov	DWORD PTR -44[rbp], esi
	.loc 1 158 5
	mov	rax, QWORD PTR labels_tail[rip]
	.loc 1 158 4
	test	rax, rax
	je	.L60
	.loc 1 159 14
	mov	rbx, QWORD PTR labels_tail[rip]
	.loc 1 159 23
	mov	esi, 32
	mov	edi, 1
	call	calloc@PLT
	.loc 1 159 21
	mov	QWORD PTR 16[rbx], rax
	.loc 1 160 34
	mov	rax, QWORD PTR labels_tail[rip]
	.loc 1 160 21
	mov	rax, QWORD PTR 16[rax]
	mov	QWORD PTR -24[rbp], rax
	jmp	.L61
.L60:
	.loc 1 162 17
	mov	esi, 32
	mov	edi, 1
	call	calloc@PLT
	.loc 1 162 15
	mov	QWORD PTR labels_head[rip], rax
	.loc 1 163 15
	mov	rax, QWORD PTR labels_head[rip]
	mov	QWORD PTR -24[rbp], rax
.L61:
	.loc 1 166 19
	mov	rax, QWORD PTR -24[rbp]
	mov	edx, DWORD PTR -44[rbp]
	mov	DWORD PTR 24[rax], edx
	.loc 1 167 19
	mov	edx, DWORD PTR llid[rip]
	mov	rax, QWORD PTR -24[rbp]
	mov	DWORD PTR [rax], edx
	.loc 1 168 19
	mov	edx, DWORD PTR llid[rip]
	mov	rax, QWORD PTR -40[rbp]
	mov	DWORD PTR 48[rax], edx
	.loc 1 169 35
	mov	rax, QWORD PTR labels_tail[rip]
	.loc 1 169 55
	test	rax, rax
	je	.L62
	.loc 1 169 48 discriminator 1
	mov	rax, QWORD PTR labels_tail[rip]
	.loc 1 169 55 discriminator 1
	mov	rax, QWORD PTR 16[rax]
	jmp	.L63
.L62:
	.loc 1 169 55 is_stmt 0 discriminator 2
	mov	rax, QWORD PTR labels_head[rip]
.L63:
	.loc 1 169 19 is_stmt 1 discriminator 4
	mov	QWORD PTR labels_tail[rip], rax
	.loc 1 171 6 discriminator 4
	mov	eax, DWORD PTR llid[rip]
	add	eax, 1
	mov	DWORD PTR llid[rip], eax
	.loc 1 173 4 discriminator 4
	cmp	DWORD PTR -44[rbp], 1
	jne	.L64
	.loc 1 174 25
	mov	rax, QWORD PTR -40[rbp]
	mov	rdx, QWORD PTR 8[rax]
	.loc 1 174 19
	mov	rax, QWORD PTR -24[rbp]
	mov	QWORD PTR 8[rax], rdx
	.loc 1 178 1
	jmp	.L66
.L64:
	.loc 1 175 10
	cmp	DWORD PTR -44[rbp], 2
	jne	.L66
	.loc 1 176 25
	mov	rax, QWORD PTR -40[rbp]
	mov	rdx, QWORD PTR 16[rax]
	.loc 1 176 19
	mov	rax, QWORD PTR -24[rbp]
	mov	QWORD PTR 8[rax], rdx
.L66:
	.loc 1 178 1
	nop
	add	rsp, 40
	pop	rbx
	pop	rbp
	.cfi_def_cfa 7, 8
	ret
	.cfi_endproc
.LFE11:
	.size	label_register, .-label_register
	.globl	find_func
	.type	find_func, @function
find_func:
.LFB12:
	.loc 1 180 28
	.cfi_startproc
	push	rbp
	.cfi_def_cfa_offset 16
	.cfi_offset 6, -16
	mov	rbp, rsp
	.cfi_def_cfa_register 6
	sub	rsp, 32
	mov	QWORD PTR -24[rbp], rdi
.LBB5:
	.loc 1 181 11
	mov	DWORD PTR -4[rbp], 0
	.loc 1 181 2
	jmp	.L68
.L72:
	.loc 1 182 47
	mov	rax, QWORD PTR -24[rbp]
	mov	eax, DWORD PTR 32[rax]
	.loc 1 182 7
	movsx	rdx, eax
	.loc 1 182 33
	mov	eax, DWORD PTR -4[rbp]
	cdqe
	lea	rcx, 0[0+rax*8]
	lea	rax, func_list[rip]
	mov	rax, QWORD PTR [rcx+rax]
	.loc 1 182 36
	mov	rcx, QWORD PTR 8[rax]
	.loc 1 182 17
	mov	rax, QWORD PTR -24[rbp]
	mov	rax, QWORD PTR 24[rax]
	.loc 1 182 7
	mov	rsi, rcx
	mov	rdi, rax
	call	memcmp@PLT
	.loc 1 182 5
	test	eax, eax
	jne	.L69
	.loc 1 183 20
	mov	eax, DWORD PTR -4[rbp]
	cdqe
	lea	rdx, 0[0+rax*8]
	lea	rax, func_list[rip]
	mov	rax, QWORD PTR [rdx+rax]
	jmp	.L70
.L69:
	.loc 1 181 47 discriminator 2
	add	DWORD PTR -4[rbp], 1
.L68:
	.loc 1 181 26 discriminator 1
	mov	eax, DWORD PTR -4[rbp]
	cdqe
	lea	rdx, 0[0+rax*8]
	lea	rax, func_list[rip]
	mov	rax, QWORD PTR [rdx+rax]
	.loc 1 181 2 discriminator 1
	test	rax, rax
	je	.L71
	.loc 1 181 30 discriminator 3
	cmp	DWORD PTR -4[rbp], 299
	jle	.L72
.L71:
.LBE5:
	.loc 1 186 9
	mov	eax, 0
.L70:
	.loc 1 187 1
	leave
	.cfi_def_cfa 7, 8
	ret
	.cfi_endproc
.LFE12:
	.size	find_func, .-find_func
	.globl	find_gvar
	.type	find_gvar, @function
find_gvar:
.LFB13:
	.loc 1 189 28
	.cfi_startproc
	push	rbp
	.cfi_def_cfa_offset 16
	.cfi_offset 6, -16
	mov	rbp, rsp
	.cfi_def_cfa_register 6
	sub	rsp, 32
	mov	QWORD PTR -24[rbp], rdi
.LBB6:
	.loc 1 191 13
	mov	rax, QWORD PTR globals[rip]
	mov	QWORD PTR -8[rbp], rax
	.loc 1 191 2
	jmp	.L74
.L77:
	.loc 1 192 9
	mov	rax, QWORD PTR -8[rbp]
	mov	edx, DWORD PTR [rax]
	.loc 1 192 21
	mov	rax, QWORD PTR -24[rbp]
	mov	eax, DWORD PTR 32[rax]
	.loc 1 192 5
	cmp	edx, eax
	jne	.L75
	.loc 1 192 62 discriminator 1
	mov	rax, QWORD PTR -8[rbp]
	mov	eax, DWORD PTR [rax]
	.loc 1 192 31 discriminator 1
	movsx	rdx, eax
	.loc 1 192 51 discriminator 1
	mov	rax, QWORD PTR -8[rbp]
	mov	rcx, QWORD PTR 8[rax]
	.loc 1 192 41 discriminator 1
	mov	rax, QWORD PTR -24[rbp]
	mov	rax, QWORD PTR 24[rax]
	.loc 1 192 31 discriminator 1
	mov	rsi, rcx
	mov	rdi, rax
	call	memcmp@PLT
	.loc 1 192 27 discriminator 1
	test	eax, eax
	jne	.L75
	.loc 1 193 11
	mov	rax, QWORD PTR -8[rbp]
	jmp	.L76
.L75:
	.loc 1 191 35 discriminator 2
	mov	rax, QWORD PTR -8[rbp]
	mov	rax, QWORD PTR 24[rax]
	mov	QWORD PTR -8[rbp], rax
.L74:
	.loc 1 191 2 discriminator 1
	cmp	QWORD PTR -8[rbp], 0
	jne	.L77
.LBE6:
	.loc 1 196 9
	mov	eax, 0
.L76:
	.loc 1 197 1
	leave
	.cfi_def_cfa 7, 8
	ret
	.cfi_endproc
.LFE13:
	.size	find_gvar, .-find_gvar
	.globl	find_lvar
	.type	find_lvar, @function
find_lvar:
.LFB14:
	.loc 1 199 44
	.cfi_startproc
	push	rbp
	.cfi_def_cfa_offset 16
	.cfi_offset 6, -16
	mov	rbp, rsp
	.cfi_def_cfa_register 6
	sub	rsp, 32
	mov	QWORD PTR -24[rbp], rdi
	mov	DWORD PTR -28[rbp], esi
	.loc 1 205 6
	mov	DWORD PTR -4[rbp], 0
.LBB7:
	.loc 1 207 13
	mov	rax, QWORD PTR locals[rip]
	mov	QWORD PTR -16[rbp], rax
	.loc 1 207 2
	jmp	.L79
.L85:
	.loc 1 208 10
	mov	rax, QWORD PTR outside_lvar[rip]
	.loc 1 208 5
	cmp	QWORD PTR -16[rbp], rax
	jne	.L80
	.loc 1 208 40 discriminator 1
	mov	DWORD PTR -4[rbp], 1
.L80:
	.loc 1 209 5
	cmp	DWORD PTR -28[rbp], 0
	je	.L81
	.loc 1 209 17 discriminator 1
	cmp	DWORD PTR -4[rbp], 0
	jne	.L86
.L81:
	.loc 1 210 9
	mov	rax, QWORD PTR -16[rbp]
	mov	edx, DWORD PTR [rax]
	.loc 1 210 21
	mov	rax, QWORD PTR -24[rbp]
	mov	eax, DWORD PTR 32[rax]
	.loc 1 210 5
	cmp	edx, eax
	jne	.L83
	.loc 1 210 62 discriminator 1
	mov	rax, QWORD PTR -16[rbp]
	mov	eax, DWORD PTR [rax]
	.loc 1 210 31 discriminator 1
	movsx	rdx, eax
	.loc 1 210 51 discriminator 1
	mov	rax, QWORD PTR -16[rbp]
	mov	rcx, QWORD PTR 8[rax]
	.loc 1 210 41 discriminator 1
	mov	rax, QWORD PTR -24[rbp]
	mov	rax, QWORD PTR 24[rax]
	.loc 1 210 31 discriminator 1
	mov	rsi, rcx
	mov	rdi, rax
	call	memcmp@PLT
	.loc 1 210 27 discriminator 1
	test	eax, eax
	jne	.L83
	.loc 1 211 11
	mov	rax, QWORD PTR -16[rbp]
	jmp	.L84
.L83:
	.loc 1 207 34 discriminator 2
	mov	rax, QWORD PTR -16[rbp]
	mov	rax, QWORD PTR 24[rax]
	mov	QWORD PTR -16[rbp], rax
.L79:
	.loc 1 207 2 discriminator 1
	cmp	QWORD PTR -16[rbp], 0
	jne	.L85
	jmp	.L82
.L86:
	.loc 1 209 3
	nop
.L82:
.LBE7:
	.loc 1 214 9
	mov	eax, 0
.L84:
	.loc 1 215 1
	leave
	.cfi_def_cfa 7, 8
	ret
	.cfi_endproc
.LFE14:
	.size	find_lvar, .-find_lvar
	.globl	find_string
	.type	find_string, @function
find_string:
.LFB15:
	.loc 1 217 29
	.cfi_startproc
	push	rbp
	.cfi_def_cfa_offset 16
	.cfi_offset 6, -16
	mov	rbp, rsp
	.cfi_def_cfa_register 6
	sub	rsp, 32
	mov	QWORD PTR -24[rbp], rdi
.LBB8:
	.loc 1 218 12
	mov	rax, QWORD PTR strings[rip]
	mov	QWORD PTR -8[rbp], rax
	.loc 1 218 2
	jmp	.L88
.L91:
	.loc 1 219 9
	mov	rax, QWORD PTR -8[rbp]
	mov	edx, DWORD PTR [rax]
	.loc 1 219 21
	mov	rax, QWORD PTR -24[rbp]
	mov	eax, DWORD PTR 32[rax]
	.loc 1 219 5
	cmp	edx, eax
	jne	.L89
	.loc 1 219 61 discriminator 1
	mov	rax, QWORD PTR -8[rbp]
	mov	eax, DWORD PTR [rax]
	.loc 1 219 31 discriminator 1
	movsx	rdx, eax
	.loc 1 219 51 discriminator 1
	mov	rax, QWORD PTR -8[rbp]
	mov	rcx, QWORD PTR 8[rax]
	.loc 1 219 41 discriminator 1
	mov	rax, QWORD PTR -24[rbp]
	mov	rax, QWORD PTR 24[rax]
	.loc 1 219 31 discriminator 1
	mov	rsi, rcx
	mov	rdi, rax
	call	memcmp@PLT
	.loc 1 219 27 discriminator 1
	test	eax, eax
	jne	.L89
	.loc 1 220 11
	mov	rax, QWORD PTR -8[rbp]
	jmp	.L90
.L89:
	.loc 1 218 34 discriminator 2
	mov	rax, QWORD PTR -8[rbp]
	mov	rax, QWORD PTR 16[rax]
	mov	QWORD PTR -8[rbp], rax
.L88:
	.loc 1 218 2 discriminator 1
	cmp	QWORD PTR -8[rbp], 0
	jne	.L91
.LBE8:
	.loc 1 223 9
	mov	eax, 0
.L90:
	.loc 1 224 1
	leave
	.cfi_def_cfa 7, 8
	ret
	.cfi_endproc
.LFE15:
	.size	find_string, .-find_string
	.globl	find_struc
	.type	find_struc, @function
find_struc:
.LFB16:
	.loc 1 226 46
	.cfi_startproc
	push	rbp
	.cfi_def_cfa_offset 16
	.cfi_offset 6, -16
	mov	rbp, rsp
	.cfi_def_cfa_register 6
	sub	rsp, 32
	mov	QWORD PTR -24[rbp], rdi
	mov	DWORD PTR -28[rbp], esi
	.loc 1 227 6
	mov	DWORD PTR -4[rbp], 0
.LBB9:
	.loc 1 228 14
	mov	rax, QWORD PTR structs[rip]
	mov	QWORD PTR -16[rbp], rax
	.loc 1 228 2
	jmp	.L93
.L99:
	.loc 1 229 10
	mov	rax, QWORD PTR outside_struct[rip]
	.loc 1 229 5
	cmp	QWORD PTR -16[rbp], rax
	jne	.L94
	.loc 1 229 42 discriminator 1
	mov	DWORD PTR -4[rbp], 1
.L94:
	.loc 1 230 5
	cmp	DWORD PTR -28[rbp], 0
	je	.L95
	.loc 1 230 17 discriminator 1
	cmp	DWORD PTR -4[rbp], 0
	jne	.L100
.L95:
	.loc 1 231 9
	mov	rax, QWORD PTR -16[rbp]
	mov	edx, DWORD PTR [rax]
	.loc 1 231 21
	mov	rax, QWORD PTR -24[rbp]
	mov	eax, DWORD PTR 32[rax]
	.loc 1 231 5
	cmp	edx, eax
	jne	.L97
	.loc 1 231 62 discriminator 1
	mov	rax, QWORD PTR -16[rbp]
	mov	eax, DWORD PTR [rax]
	.loc 1 231 31 discriminator 1
	movsx	rdx, eax
	.loc 1 231 51 discriminator 1
	mov	rax, QWORD PTR -16[rbp]
	mov	rcx, QWORD PTR 8[rax]
	.loc 1 231 41 discriminator 1
	mov	rax, QWORD PTR -24[rbp]
	mov	rax, QWORD PTR 24[rax]
	.loc 1 231 31 discriminator 1
	mov	rsi, rcx
	mov	rdi, rax
	call	memcmp@PLT
	.loc 1 231 27 discriminator 1
	test	eax, eax
	jne	.L97
	.loc 1 232 11
	mov	rax, QWORD PTR -16[rbp]
	jmp	.L98
.L97:
	.loc 1 228 36 discriminator 2
	mov	rax, QWORD PTR -16[rbp]
	mov	rax, QWORD PTR 24[rax]
	mov	QWORD PTR -16[rbp], rax
.L93:
	.loc 1 228 2 discriminator 1
	cmp	QWORD PTR -16[rbp], 0
	jne	.L99
	jmp	.L96
.L100:
	.loc 1 230 3
	nop
.L96:
.LBE9:
	.loc 1 235 9
	mov	eax, 0
.L98:
	.loc 1 236 1
	leave
	.cfi_def_cfa 7, 8
	ret
	.cfi_endproc
.LFE16:
	.size	find_struc, .-find_struc
	.globl	find_struct_member
	.type	find_struct_member, @function
find_struct_member:
.LFB17:
	.loc 1 238 55
	.cfi_startproc
	push	rbp
	.cfi_def_cfa_offset 16
	.cfi_offset 6, -16
	mov	rbp, rsp
	.cfi_def_cfa_register 6
	sub	rsp, 48
	mov	QWORD PTR -40[rbp], rdi
	mov	DWORD PTR -44[rbp], esi
	.loc 1 239 8
	mov	rax, QWORD PTR -40[rbp]
	mov	rax, QWORD PTR 40[rax]
	mov	QWORD PTR -24[rbp], rax
	.loc 1 240 7
	mov	rax, QWORD PTR -40[rbp]
	mov	eax, DWORD PTR 36[rax]
	mov	DWORD PTR -28[rbp], eax
	.loc 1 241 6
	mov	DWORD PTR -4[rbp], 0
.LBB10:
	.loc 1 243 14
	mov	rax, QWORD PTR structs[rip]
	mov	QWORD PTR -16[rbp], rax
	.loc 1 243 2
	jmp	.L102
.L108:
	.loc 1 244 10
	mov	rax, QWORD PTR outside_struct[rip]
	.loc 1 244 5
	cmp	QWORD PTR -16[rbp], rax
	jne	.L103
	.loc 1 244 42 discriminator 1
	mov	DWORD PTR -4[rbp], 1
.L103:
	.loc 1 245 5
	cmp	DWORD PTR -44[rbp], 0
	je	.L104
	.loc 1 245 17 discriminator 1
	cmp	DWORD PTR -4[rbp], 0
	jne	.L109
.L104:
	.loc 1 246 9
	mov	rax, QWORD PTR -16[rbp]
	mov	eax, DWORD PTR [rax]
	.loc 1 246 5
	cmp	DWORD PTR -28[rbp], eax
	jne	.L106
	.loc 1 246 65 discriminator 1
	mov	rax, QWORD PTR -16[rbp]
	mov	eax, DWORD PTR [rax]
	.loc 1 246 32 discriminator 1
	movsx	rdx, eax
	.loc 1 246 54 discriminator 1
	mov	rax, QWORD PTR -16[rbp]
	mov	rcx, QWORD PTR 8[rax]
	.loc 1 246 32 discriminator 1
	mov	rax, QWORD PTR -24[rbp]
	mov	rsi, rcx
	mov	rdi, rax
	call	memcmp@PLT
	.loc 1 246 28 discriminator 1
	test	eax, eax
	jne	.L106
	.loc 1 247 14
	mov	rax, QWORD PTR -16[rbp]
	mov	rax, QWORD PTR 16[rax]
	jmp	.L107
.L106:
	.loc 1 243 36 discriminator 2
	mov	rax, QWORD PTR -16[rbp]
	mov	rax, QWORD PTR 24[rax]
	mov	QWORD PTR -16[rbp], rax
.L102:
	.loc 1 243 2 discriminator 1
	cmp	QWORD PTR -16[rbp], 0
	jne	.L108
	jmp	.L105
.L109:
	.loc 1 245 3
	nop
.L105:
.LBE10:
	.loc 1 250 9
	mov	eax, 0
.L107:
	.loc 1 251 1
	leave
	.cfi_def_cfa 7, 8
	ret
	.cfi_endproc
.LFE17:
	.size	find_struct_member, .-find_struct_member
	.globl	find_enum
	.type	find_enum, @function
find_enum:
.LFB18:
	.loc 1 253 44
	.cfi_startproc
	push	rbp
	.cfi_def_cfa_offset 16
	.cfi_offset 6, -16
	mov	rbp, rsp
	.cfi_def_cfa_register 6
	sub	rsp, 32
	mov	QWORD PTR -24[rbp], rdi
	mov	DWORD PTR -28[rbp], esi
	.loc 1 254 6
	mov	DWORD PTR -4[rbp], 0
.LBB11:
	.loc 1 256 13
	mov	rax, QWORD PTR enumerations[rip]
	mov	QWORD PTR -16[rbp], rax
	.loc 1 256 2
	jmp	.L111
.L117:
	.loc 1 257 10
	mov	rax, QWORD PTR outside_enum[rip]
	.loc 1 257 5
	cmp	QWORD PTR -16[rbp], rax
	jne	.L112
	.loc 1 257 40 discriminator 1
	mov	DWORD PTR -4[rbp], 1
.L112:
	.loc 1 258 5
	cmp	DWORD PTR -28[rbp], 0
	je	.L113
	.loc 1 258 17 discriminator 1
	cmp	DWORD PTR -4[rbp], 0
	jne	.L118
.L113:
	.loc 1 259 9
	mov	rax, QWORD PTR -16[rbp]
	mov	edx, DWORD PTR [rax]
	.loc 1 259 21
	mov	rax, QWORD PTR -24[rbp]
	mov	eax, DWORD PTR 32[rax]
	.loc 1 259 5
	cmp	edx, eax
	jne	.L115
	.loc 1 259 62 discriminator 1
	mov	rax, QWORD PTR -16[rbp]
	mov	eax, DWORD PTR [rax]
	.loc 1 259 31 discriminator 1
	movsx	rdx, eax
	.loc 1 259 51 discriminator 1
	mov	rax, QWORD PTR -16[rbp]
	mov	rcx, QWORD PTR 8[rax]
	.loc 1 259 41 discriminator 1
	mov	rax, QWORD PTR -24[rbp]
	mov	rax, QWORD PTR 24[rax]
	.loc 1 259 31 discriminator 1
	mov	rsi, rcx
	mov	rdi, rax
	call	memcmp@PLT
	.loc 1 259 27 discriminator 1
	test	eax, eax
	jne	.L115
	.loc 1 260 11
	mov	rax, QWORD PTR -16[rbp]
	jmp	.L116
.L115:
	.loc 1 256 40 discriminator 2
	mov	rax, QWORD PTR -16[rbp]
	mov	rax, QWORD PTR 24[rax]
	mov	QWORD PTR -16[rbp], rax
.L111:
	.loc 1 256 2 discriminator 1
	cmp	QWORD PTR -16[rbp], 0
	jne	.L117
	jmp	.L114
.L118:
	.loc 1 258 3
	nop
.L114:
.LBE11:
	.loc 1 263 9
	mov	eax, 0
.L116:
	.loc 1 264 1
	leave
	.cfi_def_cfa 7, 8
	ret
	.cfi_endproc
.LFE18:
	.size	find_enum, .-find_enum
	.globl	find_enumerator
	.type	find_enumerator, @function
find_enumerator:
.LFB19:
	.loc 1 266 52
	.cfi_startproc
	push	rbp
	.cfi_def_cfa_offset 16
	.cfi_offset 6, -16
	mov	rbp, rsp
	.cfi_def_cfa_register 6
	sub	rsp, 48
	mov	QWORD PTR -40[rbp], rdi
	mov	DWORD PTR -44[rbp], esi
	.loc 1 267 6
	mov	DWORD PTR -4[rbp], 0
.LBB12:
	.loc 1 268 13
	mov	rax, QWORD PTR enumerations[rip]
	mov	QWORD PTR -16[rbp], rax
	.loc 1 268 2
	jmp	.L120
.L128:
	.loc 1 269 9
	mov	rax, QWORD PTR outside_enum[rip]
	.loc 1 269 5
	cmp	QWORD PTR -16[rbp], rax
	jne	.L121
	.loc 1 269 39 discriminator 1
	mov	DWORD PTR -4[rbp], 1
.L121:
	.loc 1 270 5
	cmp	DWORD PTR -44[rbp], 0
	je	.L122
	.loc 1 270 17 discriminator 1
	cmp	DWORD PTR -4[rbp], 0
	jne	.L129
.L122:
.LBB13:
	.loc 1 271 16
	mov	rax, QWORD PTR -16[rbp]
	mov	rax, QWORD PTR 16[rax]
	mov	QWORD PTR -24[rbp], rax
	.loc 1 271 3
	jmp	.L124
.L127:
	.loc 1 272 10
	mov	rax, QWORD PTR -24[rbp]
	mov	edx, DWORD PTR [rax]
	.loc 1 272 22
	mov	rax, QWORD PTR -40[rbp]
	mov	eax, DWORD PTR 32[rax]
	.loc 1 272 6
	cmp	edx, eax
	jne	.L125
	.loc 1 272 63 discriminator 1
	mov	rax, QWORD PTR -24[rbp]
	mov	eax, DWORD PTR [rax]
	.loc 1 272 32 discriminator 1
	movsx	rdx, eax
	.loc 1 272 52 discriminator 1
	mov	rax, QWORD PTR -24[rbp]
	mov	rcx, QWORD PTR 16[rax]
	.loc 1 272 42 discriminator 1
	mov	rax, QWORD PTR -40[rbp]
	mov	rax, QWORD PTR 24[rax]
	.loc 1 272 32 discriminator 1
	mov	rsi, rcx
	mov	rdi, rax
	call	memcmp@PLT
	.loc 1 272 28 discriminator 1
	test	eax, eax
	jne	.L125
	.loc 1 273 12
	mov	rax, QWORD PTR -24[rbp]
	jmp	.L126
.L125:
	.loc 1 271 41 discriminator 2
	mov	rax, QWORD PTR -24[rbp]
	mov	rax, QWORD PTR 32[rax]
	mov	QWORD PTR -24[rbp], rax
.L124:
	.loc 1 271 3 discriminator 1
	cmp	QWORD PTR -24[rbp], 0
	jne	.L127
.LBE13:
	.loc 1 268 37 discriminator 2
	mov	rax, QWORD PTR -16[rbp]
	mov	rax, QWORD PTR 24[rax]
	mov	QWORD PTR -16[rbp], rax
.L120:
	.loc 1 268 2 discriminator 1
	cmp	QWORD PTR -16[rbp], 0
	jne	.L128
	jmp	.L123
.L129:
	.loc 1 270 3
	nop
.L123:
.LBE12:
	.loc 1 277 9
	mov	eax, 0
.L126:
	.loc 1 278 1
	leave
	.cfi_def_cfa 7, 8
	ret
	.cfi_endproc
.LFE19:
	.size	find_enumerator, .-find_enumerator
	.globl	find_defined_type
	.type	find_defined_type, @function
find_defined_type:
.LFB20:
	.loc 1 280 56
	.cfi_startproc
	push	rbp
	.cfi_def_cfa_offset 16
	.cfi_offset 6, -16
	mov	rbp, rsp
	.cfi_def_cfa_register 6
	push	rbx
	sub	rsp, 40
	.cfi_offset 3, -24
	mov	QWORD PTR -40[rbp], rdi
	mov	DWORD PTR -44[rbp], esi
	.loc 1 281 6
	mov	DWORD PTR -20[rbp], 0
.LBB14:
	.loc 1 282 17
	mov	rax, QWORD PTR defined_types[rip]
	mov	QWORD PTR -32[rbp], rax
	.loc 1 282 2
	jmp	.L131
.L137:
	.loc 1 283 10
	mov	rax, QWORD PTR outside_deftype[rip]
	.loc 1 283 5
	cmp	QWORD PTR -32[rbp], rax
	jne	.L132
	.loc 1 283 43 discriminator 1
	mov	DWORD PTR -20[rbp], 1
.L132:
	.loc 1 284 5
	cmp	DWORD PTR -20[rbp], 0
	jne	.L138
	.loc 1 285 9
	mov	rax, QWORD PTR -32[rbp]
	mov	ebx, DWORD PTR 8[rax]
	.loc 1 285 23
	mov	rax, QWORD PTR -40[rbp]
	mov	rax, QWORD PTR 24[rax]
	mov	rdi, rax
	call	len_val@PLT
	.loc 1 285 5
	cmp	ebx, eax
	jne	.L135
	.loc 1 285 76 discriminator 1
	mov	rax, QWORD PTR -32[rbp]
	mov	eax, DWORD PTR 8[rax]
	.loc 1 285 45 discriminator 1
	movsx	rdx, eax
	.loc 1 285 65 discriminator 1
	mov	rax, QWORD PTR -32[rbp]
	mov	rcx, QWORD PTR [rax]
	.loc 1 285 55 discriminator 1
	mov	rax, QWORD PTR -40[rbp]
	mov	rax, QWORD PTR 24[rax]
	.loc 1 285 45 discriminator 1
	mov	rsi, rcx
	mov	rdi, rax
	call	memcmp@PLT
	.loc 1 285 41 discriminator 1
	test	eax, eax
	jne	.L135
	.loc 1 286 11
	mov	rax, QWORD PTR -32[rbp]
	jmp	.L136
.L135:
	.loc 1 282 45 discriminator 2
	mov	rax, QWORD PTR -32[rbp]
	mov	rax, QWORD PTR 40[rax]
	mov	QWORD PTR -32[rbp], rax
.L131:
	.loc 1 282 2 discriminator 1
	cmp	QWORD PTR -32[rbp], 0
	jne	.L137
	jmp	.L134
.L138:
	.loc 1 284 3
	nop
.L134:
.LBE14:
	.loc 1 289 9
	mov	eax, 0
.L136:
	.loc 1 290 1
	add	rsp, 40
	pop	rbx
	pop	rbp
	.cfi_def_cfa 7, 8
	ret
	.cfi_endproc
.LFE20:
	.size	find_defined_type, .-find_defined_type
	.globl	new_node
	.type	new_node, @function
new_node:
.LFB21:
	.loc 1 292 52
	.cfi_startproc
	push	rbp
	.cfi_def_cfa_offset 16
	.cfi_offset 6, -16
	mov	rbp, rsp
	.cfi_def_cfa_register 6
	push	rbx
	sub	rsp, 56
	.cfi_offset 3, -24
	mov	DWORD PTR -36[rbp], edi
	mov	QWORD PTR -48[rbp], rsi
	mov	QWORD PTR -56[rbp], rdx
	.loc 1 294 15
	mov	esi, 72
	mov	edi, 1
	call	calloc@PLT
	mov	QWORD PTR -24[rbp], rax
	.loc 1 295 15
	mov	esi, 48
	mov	edi, 1
	call	calloc@PLT
	mov	rdx, rax
	.loc 1 295 13
	mov	rax, QWORD PTR -24[rbp]
	mov	QWORD PTR 40[rax], rdx
	.loc 1 296 13
	mov	rax, QWORD PTR -24[rbp]
	mov	edx, DWORD PTR -36[rbp]
	mov	DWORD PTR [rax], edx
	.loc 1 297 13
	mov	rax, QWORD PTR -24[rbp]
	mov	rdx, QWORD PTR -48[rbp]
	mov	QWORD PTR 8[rax], rdx
	.loc 1 298 13
	mov	rax, QWORD PTR -24[rbp]
	mov	rdx, QWORD PTR -56[rbp]
	mov	QWORD PTR 16[rax], rdx
	.loc 1 300 4
	cmp	DWORD PTR -36[rbp], 0
	je	.L140
	.loc 1 300 20 discriminator 1
	cmp	DWORD PTR -36[rbp], 1
	jne	.L141
.L140:
	.loc 1 301 9
	mov	rax, QWORD PTR -48[rbp]
	mov	rax, QWORD PTR 40[rax]
	.loc 1 301 15
	mov	eax, DWORD PTR [rax]
	.loc 1 301 5
	cmp	eax, 3
	ja	.L142
	.loc 1 301 35 discriminator 1
	mov	rax, QWORD PTR -56[rbp]
	mov	rax, QWORD PTR 40[rax]
	.loc 1 301 41 discriminator 1
	mov	eax, DWORD PTR [rax]
	.loc 1 301 28 discriminator 1
	cmp	eax, 3
	jbe	.L141
.L142:
	.loc 1 302 11
	mov	rax, QWORD PTR -56[rbp]
	mov	rdx, QWORD PTR 40[rax]
	mov	rax, QWORD PTR -48[rbp]
	mov	rcx, QWORD PTR 40[rax]
	mov	rax, QWORD PTR -24[rbp]
	mov	rsi, rcx
	mov	rdi, rax
	call	pointer_calc@PLT
	mov	QWORD PTR -24[rbp], rax
.L141:
	.loc 1 306 4
	cmp	DWORD PTR -36[rbp], 13
	jne	.L143
	.loc 1 307 9
	mov	rax, QWORD PTR -48[rbp]
	mov	rax, QWORD PTR 40[rax]
	.loc 1 307 15
	mov	eax, DWORD PTR [rax]
	.loc 1 307 5
	cmp	eax, 1
	jne	.L143
	.loc 1 308 16
	mov	edi, 0
	call	new_node_num
	mov	rdx, rax
	mov	rax, QWORD PTR -24[rbp]
	mov	rax, QWORD PTR 16[rax]
	mov	rsi, rax
	mov	edi, 10
	call	new_node
	.loc 1 308 14
	mov	rdx, QWORD PTR -24[rbp]
	mov	QWORD PTR 16[rdx], rax
.L143:
	.loc 1 312 4
	cmp	DWORD PTR -36[rbp], 13
	ja	.L144
	.loc 1 313 20
	mov	rax, QWORD PTR -48[rbp]
	mov	rax, QWORD PTR 40[rax]
	.loc 1 313 26
	mov	edx, DWORD PTR [rax]
	.loc 1 313 36
	mov	rax, QWORD PTR -56[rbp]
	mov	rax, QWORD PTR 40[rax]
	.loc 1 313 42
	mov	eax, DWORD PTR [rax]
	.loc 1 313 59
	cmp	edx, eax
	jbe	.L145
	.loc 1 313 59 is_stmt 0 discriminator 1
	mov	rax, QWORD PTR -48[rbp]
	mov	rax, QWORD PTR 40[rax]
	jmp	.L146
.L145:
	.loc 1 313 59 discriminator 2
	mov	rax, QWORD PTR -56[rbp]
	mov	rax, QWORD PTR 40[rax]
.L146:
	.loc 1 313 14 is_stmt 1 discriminator 4
	mov	rdx, QWORD PTR -24[rbp]
	mov	QWORD PTR 40[rdx], rax
.L144:
	.loc 1 316 4
	cmp	DWORD PTR -36[rbp], 16
	je	.L147
	.loc 1 316 20 discriminator 1
	cmp	DWORD PTR -36[rbp], 17
	jne	.L148
.L147:
	.loc 1 317 19
	mov	rax, QWORD PTR -48[rbp]
	mov	rdx, QWORD PTR 40[rax]
	.loc 1 317 14
	mov	rax, QWORD PTR -24[rbp]
	mov	QWORD PTR 40[rax], rdx
.L148:
	.loc 1 320 4
	cmp	DWORD PTR -36[rbp], 20
	jne	.L149
	.loc 1 321 7
	mov	rax, QWORD PTR -24[rbp]
	mov	rax, QWORD PTR 40[rax]
	.loc 1 321 22
	mov	DWORD PTR [rax], 4
	.loc 1 322 24
	mov	rax, QWORD PTR -24[rbp]
	mov	rax, QWORD PTR 40[rax]
	.loc 1 322 7
	mov	rdx, QWORD PTR -24[rbp]
	mov	rbx, QWORD PTR 40[rdx]
	.loc 1 322 24
	mov	rdi, rax
	call	type_size@PLT
	.loc 1 322 22
	mov	DWORD PTR 16[rbx], eax
	.loc 1 323 24
	mov	rax, QWORD PTR -24[rbp]
	mov	rax, QWORD PTR 40[rax]
	.loc 1 323 7
	mov	rdx, QWORD PTR -24[rbp]
	mov	rbx, QWORD PTR 40[rdx]
	.loc 1 323 24
	mov	rdi, rax
	call	type_align@PLT
	.loc 1 323 22
	mov	DWORD PTR 20[rbx], eax
	.loc 1 324 7
	mov	rax, QWORD PTR -24[rbp]
	mov	rax, QWORD PTR 40[rax]
	.loc 1 324 27
	mov	rdx, QWORD PTR -56[rbp]
	mov	rdx, QWORD PTR 40[rdx]
	.loc 1 324 22
	mov	QWORD PTR 8[rax], rdx
.L149:
	.loc 1 327 4
	cmp	DWORD PTR -36[rbp], 21
	jne	.L150
	.loc 1 328 9
	mov	rax, QWORD PTR -56[rbp]
	mov	rax, QWORD PTR 40[rax]
	.loc 1 328 15
	mov	rax, QWORD PTR 8[rax]
	.loc 1 328 5
	test	rax, rax
	je	.L151
	.loc 1 328 38 discriminator 1
	mov	rax, QWORD PTR -56[rbp]
	mov	rax, QWORD PTR 40[rax]
	.loc 1 328 44 discriminator 1
	mov	rax, QWORD PTR 8[rax]
	.loc 1 328 52 discriminator 1
	mov	eax, DWORD PTR [rax]
	.loc 1 328 32 discriminator 1
	cmp	eax, 5
	je	.L152
.L151:
	.loc 1 329 21
	mov	rax, QWORD PTR -24[rbp]
	mov	rax, QWORD PTR 16[rax]
	.loc 1 329 26
	mov	rax, QWORD PTR 40[rax]
	.loc 1 329 32
	mov	rdx, QWORD PTR 8[rax]
	.loc 1 329 15
	mov	rax, QWORD PTR -24[rbp]
	mov	QWORD PTR 40[rax], rdx
	jmp	.L150
.L152:
	.loc 1 331 13
	mov	rax, QWORD PTR -24[rbp]
	mov	rax, QWORD PTR 40[rax]
	.loc 1 331 4
	mov	rdi, rax
	call	free@PLT
	.loc 1 332 4
	mov	rax, QWORD PTR -24[rbp]
	mov	rdi, rax
	call	free@PLT
	.loc 1 333 19
	mov	rax, QWORD PTR -56[rbp]
	mov	rax, QWORD PTR 40[rax]
	.loc 1 333 25
	mov	rdx, QWORD PTR 8[rax]
	.loc 1 333 14
	mov	rax, QWORD PTR -56[rbp]
	mov	QWORD PTR 40[rax], rdx
	.loc 1 334 11
	mov	rax, QWORD PTR -56[rbp]
	jmp	.L153
.L150:
	.loc 1 338 9
	mov	rax, QWORD PTR -24[rbp]
.L153:
	.loc 1 339 1
	add	rsp, 56
	pop	rbx
	pop	rbp
	.cfi_def_cfa 7, 8
	ret
	.cfi_endproc
.LFE21:
	.size	new_node, .-new_node
	.globl	new_node_num
	.type	new_node_num, @function
new_node_num:
.LFB22:
	.loc 1 341 28
	.cfi_startproc
	push	rbp
	.cfi_def_cfa_offset 16
	.cfi_offset 6, -16
	mov	rbp, rsp
	.cfi_def_cfa_register 6
	push	rbx
	sub	rsp, 40
	.cfi_offset 3, -24
	mov	DWORD PTR -36[rbp], edi
	.loc 1 343 15
	mov	esi, 72
	mov	edi, 1
	call	calloc@PLT
	mov	QWORD PTR -24[rbp], rax
	.loc 1 344 13
	mov	rax, QWORD PTR -24[rbp]
	mov	DWORD PTR [rax], 27
	.loc 1 345 13
	mov	rax, QWORD PTR -24[rbp]
	mov	edx, DWORD PTR -36[rbp]
	mov	DWORD PTR 48[rax], edx
	.loc 1 346 15
	mov	esi, 48
	mov	edi, 1
	call	calloc@PLT
	mov	rdx, rax
	.loc 1 346 13
	mov	rax, QWORD PTR -24[rbp]
	mov	QWORD PTR 40[rax], rdx
	.loc 1 347 6
	mov	rax, QWORD PTR -24[rbp]
	mov	rax, QWORD PTR 40[rax]
	.loc 1 347 20
	mov	DWORD PTR [rax], 3
	.loc 1 348 22
	mov	rax, QWORD PTR -24[rbp]
	mov	rax, QWORD PTR 40[rax]
	.loc 1 348 6
	mov	rdx, QWORD PTR -24[rbp]
	mov	rbx, QWORD PTR 40[rdx]
	.loc 1 348 22
	mov	rdi, rax
	call	type_size@PLT
	.loc 1 348 20
	mov	DWORD PTR 16[rbx], eax
	.loc 1 349 22
	mov	rax, QWORD PTR -24[rbp]
	mov	rax, QWORD PTR 40[rax]
	.loc 1 349 6
	mov	rdx, QWORD PTR -24[rbp]
	mov	rbx, QWORD PTR 40[rdx]
	.loc 1 349 22
	mov	rdi, rax
	call	type_align@PLT
	.loc 1 349 20
	mov	DWORD PTR 20[rbx], eax
	.loc 1 350 9
	mov	rax, QWORD PTR -24[rbp]
	.loc 1 351 1
	add	rsp, 40
	pop	rbx
	pop	rbp
	.cfi_def_cfa 7, 8
	ret
	.cfi_endproc
.LFE22:
	.size	new_node_num, .-new_node_num
.Letext0:
	.file 2 "/usr/lib/gcc/x86_64-linux-gnu/9/include/stddef.h"
	.file 3 "/usr/lib/gcc/x86_64-linux-gnu/9/include/stdarg.h"
	.file 4 "<built-in>"
	.file 5 "/usr/include/x86_64-linux-gnu/bits/types.h"
	.file 6 "/usr/include/x86_64-linux-gnu/bits/types/struct_FILE.h"
	.file 7 "/usr/include/x86_64-linux-gnu/bits/types/FILE.h"
	.file 8 "/usr/include/stdio.h"
	.file 9 "../include/cc_sakura.h"
	.section	.note.GNU-stack,"",@progbits
