	.file	"tokenizer.c"
	.intel_syntax noprefix
	.text
.Ltext0:
	.globl	len_val
	.type	len_val, @function
len_val:
.LFB0:
	.file 1 "../src/tokenizer.c"
	.loc 1 3 23
	.cfi_startproc
	push	rbp
	.cfi_def_cfa_offset 16
	.cfi_offset 6, -16
	mov	rbp, rsp
	.cfi_def_cfa_register 6
	sub	rsp, 32
	mov	QWORD PTR -24[rbp], rdi
	.loc 1 4 6
	mov	DWORD PTR -4[rbp], 0
	.loc 1 5 2
	jmp	.L2
.L3:
	.loc 1 6 10 discriminator 2
	add	DWORD PTR -4[rbp], 1
	.loc 1 5 25 discriminator 2
	add	QWORD PTR -24[rbp], 1
.L2:
	.loc 1 5 16 discriminator 1
	mov	rax, QWORD PTR -24[rbp]
	movzx	eax, BYTE PTR [rax]
	.loc 1 5 7 discriminator 1
	movsx	eax, al
	mov	edi, eax
	call	is_alnum
	.loc 1 5 2 discriminator 1
	test	al, al
	jne	.L3
	.loc 1 9 9
	mov	eax, DWORD PTR -4[rbp]
	.loc 1 10 1
	leave
	.cfi_def_cfa 7, 8
	ret
	.cfi_endproc
.LFE0:
	.size	len_val, .-len_val
	.globl	is_block
	.type	is_block, @function
is_block:
.LFB1:
	.loc 1 12 22
	.cfi_startproc
	push	rbp
	.cfi_def_cfa_offset 16
	.cfi_offset 6, -16
	mov	rbp, rsp
	.cfi_def_cfa_register 6
	mov	eax, edi
	mov	BYTE PTR -4[rbp], al
	.loc 1 13 20
	cmp	BYTE PTR -4[rbp], 123
	je	.L6
	.loc 1 13 20 is_stmt 0 discriminator 2
	cmp	BYTE PTR -4[rbp], 125
	jne	.L7
.L6:
	.loc 1 13 20 discriminator 3
	mov	eax, 1
	jmp	.L8
.L7:
	.loc 1 13 20 discriminator 4
	mov	eax, 0
.L8:
	.loc 1 13 20 discriminator 6
	and	eax, 1
	.loc 1 14 1 is_stmt 1 discriminator 6
	pop	rbp
	.cfi_def_cfa 7, 8
	ret
	.cfi_endproc
.LFE1:
	.size	is_block, .-is_block
	.globl	is_space
	.type	is_space, @function
is_space:
.LFB2:
	.loc 1 16 22
	.cfi_startproc
	push	rbp
	.cfi_def_cfa_offset 16
	.cfi_offset 6, -16
	mov	rbp, rsp
	.cfi_def_cfa_register 6
	mov	eax, edi
	mov	BYTE PTR -4[rbp], al
	.loc 1 17 35
	cmp	BYTE PTR -4[rbp], 32
	je	.L11
	.loc 1 17 20 discriminator 2
	cmp	BYTE PTR -4[rbp], 9
	je	.L11
	.loc 1 17 35 discriminator 4
	cmp	BYTE PTR -4[rbp], 10
	jne	.L12
.L11:
	.loc 1 17 35 is_stmt 0 discriminator 5
	mov	eax, 1
	jmp	.L13
.L12:
	.loc 1 17 35 discriminator 6
	mov	eax, 0
.L13:
	.loc 1 17 35 discriminator 8
	and	eax, 1
	.loc 1 18 1 is_stmt 1 discriminator 8
	pop	rbp
	.cfi_def_cfa 7, 8
	ret
	.cfi_endproc
.LFE2:
	.size	is_space, .-is_space
	.globl	is_digit
	.type	is_digit, @function
is_digit:
.LFB3:
	.loc 1 20 22
	.cfi_startproc
	push	rbp
	.cfi_def_cfa_offset 16
	.cfi_offset 6, -16
	mov	rbp, rsp
	.cfi_def_cfa_register 6
	mov	eax, edi
	mov	BYTE PTR -4[rbp], al
	.loc 1 21 22
	cmp	BYTE PTR -4[rbp], 47
	jle	.L16
	.loc 1 21 22 is_stmt 0 discriminator 1
	cmp	BYTE PTR -4[rbp], 57
	jg	.L16
	.loc 1 21 22 discriminator 3
	mov	eax, 1
	jmp	.L17
.L16:
	.loc 1 21 22 discriminator 4
	mov	eax, 0
.L17:
	.loc 1 21 22 discriminator 6
	and	eax, 1
	.loc 1 22 1 is_stmt 1 discriminator 6
	pop	rbp
	.cfi_def_cfa 7, 8
	ret
	.cfi_endproc
.LFE3:
	.size	is_digit, .-is_digit
	.globl	at_eof
	.type	at_eof, @function
at_eof:
.LFB4:
	.loc 1 24 18
	.cfi_startproc
	push	rbp
	.cfi_def_cfa_offset 16
	.cfi_offset 6, -16
	mov	rbp, rsp
	.cfi_def_cfa_register 6
	.loc 1 25 14
	mov	rax, QWORD PTR token[rip]
	mov	eax, DWORD PTR [rax]
	.loc 1 25 21
	cmp	eax, 22
	sete	al
	.loc 1 26 1
	pop	rbp
	.cfi_def_cfa 7, 8
	ret
	.cfi_endproc
.LFE4:
	.size	at_eof, .-at_eof
	.globl	is_alnum
	.type	is_alnum, @function
is_alnum:
.LFB5:
	.loc 1 28 22
	.cfi_startproc
	push	rbp
	.cfi_def_cfa_offset 16
	.cfi_offset 6, -16
	mov	rbp, rsp
	.cfi_def_cfa_register 6
	mov	eax, edi
	mov	BYTE PTR -4[rbp], al
	.loc 1 31 32
	cmp	BYTE PTR -4[rbp], 96
	jle	.L22
	.loc 1 29 22
	cmp	BYTE PTR -4[rbp], 122
	jle	.L23
.L22:
	.loc 1 29 38 discriminator 1
	cmp	BYTE PTR -4[rbp], 64
	jle	.L24
	.loc 1 30 16
	cmp	BYTE PTR -4[rbp], 90
	jle	.L23
.L24:
	.loc 1 30 32 discriminator 1
	cmp	BYTE PTR -4[rbp], 47
	jle	.L25
	.loc 1 31 16
	cmp	BYTE PTR -4[rbp], 57
	jle	.L23
.L25:
	.loc 1 31 32 discriminator 2
	cmp	BYTE PTR -4[rbp], 95
	jne	.L26
.L23:
	.loc 1 31 32 is_stmt 0 discriminator 3
	mov	eax, 1
	jmp	.L27
.L26:
	.loc 1 31 32 discriminator 4
	mov	eax, 0
.L27:
	.loc 1 31 32 discriminator 6
	and	eax, 1
	.loc 1 33 1 is_stmt 1 discriminator 6
	pop	rbp
	.cfi_def_cfa 7, 8
	ret
	.cfi_endproc
.LFE5:
	.size	is_alnum, .-is_alnum
	.globl	is_symbol
	.type	is_symbol, @function
is_symbol:
.LFB6:
	.loc 1 35 46
	.cfi_startproc
	push	rbp
	.cfi_def_cfa_offset 16
	.cfi_offset 6, -16
	mov	rbp, rsp
	.cfi_def_cfa_register 6
	mov	QWORD PTR -72[rbp], rdi
	mov	QWORD PTR -80[rbp], rsi
	.loc 1 38 11
	movabs	rax, 2965662295770410283
	movabs	rdx, 6570253967572220967
	mov	QWORD PTR -32[rbp], rax
	mov	QWORD PTR -24[rbp], rdx
	mov	DWORD PTR -16[rbp], 557465437
	mov	BYTE PTR -12[rbp], 0
	.loc 1 39 11
	mov	DWORD PTR -39[rbp], 2082881084
	mov	WORD PTR -35[rbp], 11563
	mov	BYTE PTR -33[rbp], 0
	.loc 1 40 11
	mov	WORD PTR -42[rbp], 15917
	mov	BYTE PTR -40[rbp], 0
	.loc 1 41 11
	movabs	rax, 3399419658464279868
	mov	QWORD PTR -51[rbp], rax
	mov	BYTE PTR -43[rbp], 0
	.loc 1 44 11
	mov	DWORD PTR -8[rbp], 9
	.loc 1 45 12
	mov	DWORD PTR -4[rbp], 0
	.loc 1 45 6
	jmp	.L30
.L33:
	.loc 1 46 11
	mov	rax, QWORD PTR -72[rbp]
	movzx	edx, BYTE PTR [rax]
	.loc 1 46 27
	mov	eax, DWORD PTR -4[rbp]
	cdqe
	movzx	eax, BYTE PTR -51[rbp+rax]
	.loc 1 46 9
	cmp	dl, al
	jne	.L31
	.loc 1 46 41 discriminator 1
	mov	rax, QWORD PTR -72[rbp]
	add	rax, 1
	.loc 1 46 36 discriminator 1
	movzx	eax, BYTE PTR [rax]
	.loc 1 46 32 discriminator 1
	cmp	al, 61
	jne	.L31
	.loc 1 47 21
	mov	rax, QWORD PTR -80[rbp]
	mov	BYTE PTR [rax], 0
	.loc 1 48 15
	mov	eax, 1
	jmp	.L43
.L31:
	.loc 1 45 26 discriminator 2
	add	DWORD PTR -4[rbp], 1
.L30:
	.loc 1 45 6 discriminator 1
	mov	eax, DWORD PTR -4[rbp]
	cmp	eax, DWORD PTR -8[rbp]
	jl	.L33
	.loc 1 53 11
	mov	DWORD PTR -8[rbp], 7
	.loc 1 54 12
	mov	DWORD PTR -4[rbp], 0
	.loc 1 54 6
	jmp	.L34
.L36:
	.loc 1 55 10
	mov	rax, QWORD PTR -72[rbp]
	movzx	edx, BYTE PTR [rax]
	.loc 1 55 31
	mov	eax, DWORD PTR -4[rbp]
	cdqe
	movzx	eax, BYTE PTR -39[rbp+rax]
	.loc 1 55 9
	cmp	dl, al
	jne	.L35
	.loc 1 55 43 discriminator 1
	mov	rax, QWORD PTR -72[rbp]
	add	rax, 1
	.loc 1 55 38 discriminator 1
	movzx	edx, BYTE PTR [rax]
	.loc 1 55 63 discriminator 1
	mov	eax, DWORD PTR -4[rbp]
	cdqe
	movzx	eax, BYTE PTR -39[rbp+rax]
	.loc 1 55 35 discriminator 1
	cmp	dl, al
	jne	.L35
	.loc 1 56 21
	mov	rax, QWORD PTR -80[rbp]
	mov	BYTE PTR [rax], 0
	.loc 1 57 15
	mov	eax, 1
	jmp	.L43
.L35:
	.loc 1 54 26 discriminator 2
	add	DWORD PTR -4[rbp], 1
.L34:
	.loc 1 54 6 discriminator 1
	mov	eax, DWORD PTR -4[rbp]
	cmp	eax, DWORD PTR -8[rbp]
	jl	.L36
	.loc 1 62 11
	mov	DWORD PTR -8[rbp], 1
	.loc 1 63 12
	mov	DWORD PTR -4[rbp], 0
	.loc 1 63 6
	jmp	.L37
.L39:
	.loc 1 64 10
	mov	rax, QWORD PTR -72[rbp]
	movzx	edx, BYTE PTR [rax]
	.loc 1 64 30
	mov	eax, DWORD PTR -4[rbp]
	cdqe
	movzx	eax, BYTE PTR -42[rbp+rax]
	.loc 1 64 9
	cmp	dl, al
	jne	.L38
	.loc 1 64 42 discriminator 1
	mov	rax, QWORD PTR -72[rbp]
	add	rax, 1
	.loc 1 64 37 discriminator 1
	movzx	edx, BYTE PTR [rax]
	.loc 1 64 63 discriminator 1
	mov	eax, DWORD PTR -4[rbp]
	add	eax, 1
	.loc 1 64 61 discriminator 1
	cdqe
	movzx	eax, BYTE PTR -42[rbp+rax]
	.loc 1 64 34 discriminator 1
	cmp	dl, al
	jne	.L38
	.loc 1 65 21
	mov	rax, QWORD PTR -80[rbp]
	mov	BYTE PTR [rax], 0
	.loc 1 66 15
	mov	eax, 1
	jmp	.L43
.L38:
	.loc 1 63 27 discriminator 2
	add	DWORD PTR -4[rbp], 2
.L37:
	.loc 1 63 6 discriminator 1
	mov	eax, DWORD PTR -4[rbp]
	cmp	eax, DWORD PTR -8[rbp]
	jl	.L39
	.loc 1 71 11
	mov	DWORD PTR -8[rbp], 21
	.loc 1 72 12
	mov	DWORD PTR -4[rbp], 0
	.loc 1 72 6
	jmp	.L40
.L42:
	.loc 1 73 10
	mov	rax, QWORD PTR -72[rbp]
	movzx	edx, BYTE PTR [rax]
	.loc 1 73 31
	mov	eax, DWORD PTR -4[rbp]
	cdqe
	movzx	eax, BYTE PTR -32[rbp+rax]
	.loc 1 73 9
	cmp	dl, al
	jne	.L41
	.loc 1 74 21
	mov	rax, QWORD PTR -80[rbp]
	mov	BYTE PTR [rax], 1
	.loc 1 75 15
	mov	eax, 1
	jmp	.L43
.L41:
	.loc 1 72 26 discriminator 2
	add	DWORD PTR -4[rbp], 1
.L40:
	.loc 1 72 6 discriminator 1
	mov	eax, DWORD PTR -4[rbp]
	cmp	eax, DWORD PTR -8[rbp]
	jl	.L42
	.loc 1 79 13
	mov	eax, 0
.L43:
	.loc 1 80 1 discriminator 1
	pop	rbp
	.cfi_def_cfa 7, 8
	ret
	.cfi_endproc
.LFE6:
	.size	is_symbol, .-is_symbol
	.globl	new_token
	.type	new_token, @function
new_token:
.LFB7:
	.loc 1 83 56
	.cfi_startproc
	push	rbp
	.cfi_def_cfa_offset 16
	.cfi_offset 6, -16
	mov	rbp, rsp
	.cfi_def_cfa_register 6
	sub	rsp, 48
	mov	DWORD PTR -20[rbp], edi
	mov	QWORD PTR -32[rbp], rsi
	mov	QWORD PTR -40[rbp], rdx
	.loc 1 84 15
	mov	esi, 40
	mov	edi, 1
	call	calloc@PLT
	mov	QWORD PTR -8[rbp], rax
	.loc 1 85 12
	mov	rax, QWORD PTR -8[rbp]
	mov	edx, DWORD PTR -20[rbp]
	mov	DWORD PTR [rax], edx
	.loc 1 87 11
	mov	rax, QWORD PTR -8[rbp]
	mov	rdx, QWORD PTR -40[rbp]
	mov	QWORD PTR 24[rax], rdx
	.loc 1 88 11
	mov	rax, QWORD PTR -8[rbp]
	mov	DWORD PTR 32[rax], 1
	.loc 1 89 12
	mov	rax, QWORD PTR -32[rbp]
	mov	rdx, QWORD PTR -8[rbp]
	mov	QWORD PTR 8[rax], rdx
	.loc 1 90 9
	mov	rax, QWORD PTR -8[rbp]
	.loc 1 91 1
	leave
	.cfi_def_cfa 7, 8
	ret
	.cfi_endproc
.LFE7:
	.size	new_token, .-new_token
	.globl	tokenize_reserved
	.type	tokenize_reserved, @function
tokenize_reserved:
.LFB8:
	.loc 1 93 85
	.cfi_startproc
	push	rbp
	.cfi_def_cfa_offset 16
	.cfi_offset 6, -16
	mov	rbp, rsp
	.cfi_def_cfa_register 6
	sub	rsp, 32
	mov	QWORD PTR -8[rbp], rdi
	mov	QWORD PTR -16[rbp], rsi
	mov	DWORD PTR -20[rbp], edx
	mov	QWORD PTR -32[rbp], rcx
	mov	DWORD PTR -24[rbp], r8d
	.loc 1 94 5
	mov	eax, DWORD PTR -20[rbp]
	movsx	rdx, eax
	mov	rax, QWORD PTR -8[rbp]
	mov	rax, QWORD PTR [rax]
	mov	rcx, QWORD PTR -16[rbp]
	mov	rsi, rcx
	mov	rdi, rax
	call	strncmp@PLT
	.loc 1 94 4
	test	eax, eax
	jne	.L47
	.loc 1 94 46 discriminator 1
	mov	rax, QWORD PTR -8[rbp]
	mov	rdx, QWORD PTR [rax]
	.loc 1 94 49 discriminator 1
	mov	eax, DWORD PTR -20[rbp]
	cdqe
	add	rax, rdx
	movzx	eax, BYTE PTR [rax]
	.loc 1 94 36 discriminator 1
	movsx	eax, al
	mov	edi, eax
	call	is_alnum
	.loc 1 94 33 discriminator 1
	test	al, al
	je	.L48
.L47:
	.loc 1 95 10
	mov	eax, 0
	jmp	.L49
.L48:
	.loc 1 98 9
	mov	rax, QWORD PTR -8[rbp]
	mov	rdx, QWORD PTR [rax]
	mov	rax, QWORD PTR -32[rbp]
	mov	rcx, QWORD PTR [rax]
	mov	eax, DWORD PTR -24[rbp]
	mov	rsi, rcx
	mov	edi, eax
	call	new_token
	.loc 1 98 7
	mov	rdx, QWORD PTR -32[rbp]
	mov	QWORD PTR [rdx], rax
	.loc 1 99 3
	mov	rax, QWORD PTR -32[rbp]
	mov	rax, QWORD PTR [rax]
	.loc 1 99 14
	mov	edx, DWORD PTR -20[rbp]
	mov	DWORD PTR 32[rax], edx
	.loc 1 100 3
	mov	rax, QWORD PTR -32[rbp]
	mov	rax, QWORD PTR [rax]
	.loc 1 100 16
	mov	rdx, QWORD PTR -8[rbp]
	mov	rdx, QWORD PTR [rdx]
	.loc 1 100 14
	mov	QWORD PTR 24[rax], rdx
	.loc 1 101 5
	mov	rax, QWORD PTR -8[rbp]
	mov	rdx, QWORD PTR [rax]
	mov	eax, DWORD PTR -20[rbp]
	cdqe
	add	rdx, rax
	mov	rax, QWORD PTR -8[rbp]
	mov	QWORD PTR [rax], rdx
	.loc 1 103 9
	mov	eax, 1
.L49:
	.loc 1 104 1
	leave
	.cfi_def_cfa 7, 8
	ret
	.cfi_endproc
.LFE8:
	.size	tokenize_reserved, .-tokenize_reserved
	.section	.rodata
.LC0:
	.string	"void"
.LC1:
	.string	"_Bool"
.LC2:
	.string	"char"
.LC3:
	.string	"int"
.LC4:
	.string	"struct"
.LC5:
	.string	"enum"
.LC6:
	.string	"if"
.LC7:
	.string	"else"
.LC8:
	.string	"switch"
.LC9:
	.string	"case"
.LC10:
	.string	"default"
.LC11:
	.string	"for"
.LC12:
	.string	"do"
.LC13:
	.string	"while"
.LC14:
	.string	"break"
.LC15:
	.string	"continue"
.LC16:
	.string	"sizeof"
.LC17:
	.string	"typedef"
.LC18:
	.string	"extern"
.LC19:
	.string	"return"
.LC20:
	.string	"_Thread_local"
.LC21:
	.string	"__NULL"
.LC22:
	.string	"can not tokenize."
	.text
	.globl	tokenize
	.type	tokenize, @function
tokenize:
.LFB9:
	.loc 1 106 25
	.cfi_startproc
	push	rbp
	.cfi_def_cfa_offset 16
	.cfi_offset 6, -16
	mov	rbp, rsp
	.cfi_def_cfa_register 6
	sub	rsp, 80
	mov	QWORD PTR -72[rbp], rdi
	.loc 1 109 12
	mov	QWORD PTR -40[rbp], 0
	.loc 1 112 9
	lea	rax, -48[rbp]
	mov	QWORD PTR -56[rbp], rax
	.loc 1 114 7
	jmp	.L51
.L102:
	.loc 1 115 15
	mov	rax, QWORD PTR -72[rbp]
	movzx	eax, BYTE PTR [rax]
	.loc 1 115 6
	movsx	eax, al
	mov	edi, eax
	call	is_space
	.loc 1 115 5
	test	al, al
	je	.L52
	.loc 1 116 5
	mov	rax, QWORD PTR -72[rbp]
	add	rax, 1
	mov	QWORD PTR -72[rbp], rax
	.loc 1 117 4
	jmp	.L51
.L52:
	.loc 1 120 7
	mov	rax, QWORD PTR -72[rbp]
	movzx	eax, BYTE PTR [rax]
	.loc 1 120 5
	cmp	al, 47
	jne	.L53
	.loc 1 120 25 discriminator 1
	mov	rax, QWORD PTR -72[rbp]
	add	rax, 1
	.loc 1 120 22 discriminator 1
	movzx	eax, BYTE PTR [rax]
	.loc 1 120 18 discriminator 1
	cmp	al, 47
	jne	.L53
	.loc 1 121 9
	jmp	.L54
.L55:
	.loc 1 121 23 discriminator 2
	mov	rax, QWORD PTR -72[rbp]
	add	rax, 1
	mov	QWORD PTR -72[rbp], rax
.L54:
	.loc 1 121 10 discriminator 1
	mov	rax, QWORD PTR -72[rbp]
	movzx	eax, BYTE PTR [rax]
	.loc 1 121 9 discriminator 1
	cmp	al, 10
	jne	.L55
	.loc 1 122 4
	jmp	.L51
.L53:
	.loc 1 125 7
	mov	rax, QWORD PTR -72[rbp]
	movzx	eax, BYTE PTR [rax]
	.loc 1 125 5
	cmp	al, 47
	jne	.L56
	.loc 1 125 25 discriminator 1
	mov	rax, QWORD PTR -72[rbp]
	add	rax, 1
	.loc 1 125 22 discriminator 1
	movzx	eax, BYTE PTR [rax]
	.loc 1 125 18 discriminator 1
	cmp	al, 42
	jne	.L56
	.loc 1 126 9
	jmp	.L57
.L58:
	.loc 1 126 46 discriminator 4
	mov	rax, QWORD PTR -72[rbp]
	add	rax, 1
	mov	QWORD PTR -72[rbp], rax
.L57:
	.loc 1 126 16 discriminator 1
	mov	rax, QWORD PTR -72[rbp]
	sub	rax, 1
	.loc 1 126 13 discriminator 1
	movzx	eax, BYTE PTR [rax]
	.loc 1 126 9 discriminator 1
	cmp	al, 42
	jne	.L58
	.loc 1 126 32 discriminator 3
	mov	rax, QWORD PTR -72[rbp]
	movzx	eax, BYTE PTR [rax]
	.loc 1 126 10 discriminator 3
	cmp	al, 47
	jne	.L58
	.loc 1 127 5
	mov	rax, QWORD PTR -72[rbp]
	add	rax, 1
	mov	QWORD PTR -72[rbp], rax
	.loc 1 128 4
	jmp	.L51
.L56:
	.loc 1 132 6
	mov	rax, QWORD PTR -72[rbp]
	movzx	eax, BYTE PTR [rax]
	.loc 1 132 5
	cmp	al, 39
	jne	.L59
	.loc 1 133 5
	mov	rax, QWORD PTR -72[rbp]
	add	rax, 1
	mov	QWORD PTR -72[rbp], rax
	.loc 1 134 7
	mov	rax, QWORD PTR -72[rbp]
	movzx	eax, BYTE PTR [rax]
	.loc 1 134 6
	cmp	al, 92
	jne	.L60
	.loc 1 135 6
	mov	rax, QWORD PTR -72[rbp]
	add	rax, 1
	mov	QWORD PTR -72[rbp], rax
	.loc 1 138 8
	mov	rax, QWORD PTR -72[rbp]
	movzx	eax, BYTE PTR [rax]
	.loc 1 138 7
	cmp	al, 48
	jne	.L61
	.loc 1 139 12
	mov	rax, QWORD PTR -72[rbp]
	lea	rdx, 1[rax]
	mov	QWORD PTR -72[rbp], rdx
	mov	rcx, QWORD PTR -56[rbp]
	mov	rdx, rax
	mov	rsi, rcx
	mov	edi, 3
	call	new_token
	.loc 1 139 10
	mov	QWORD PTR -56[rbp], rax
	.loc 1 140 9
	mov	rax, QWORD PTR -56[rbp]
	.loc 1 140 15
	mov	DWORD PTR 16[rax], 0
	jmp	.L62
.L61:
	.loc 1 142 14
	mov	rax, QWORD PTR -72[rbp]
	movzx	eax, BYTE PTR [rax]
	.loc 1 142 13
	cmp	al, 110
	jne	.L63
	.loc 1 143 12
	mov	rax, QWORD PTR -72[rbp]
	lea	rdx, 1[rax]
	mov	QWORD PTR -72[rbp], rdx
	mov	rcx, QWORD PTR -56[rbp]
	mov	rdx, rax
	mov	rsi, rcx
	mov	edi, 3
	call	new_token
	.loc 1 143 10
	mov	QWORD PTR -56[rbp], rax
	.loc 1 144 9
	mov	rax, QWORD PTR -56[rbp]
	.loc 1 144 15
	mov	DWORD PTR 16[rax], 10
	jmp	.L62
.L63:
	.loc 1 146 14
	mov	rax, QWORD PTR -72[rbp]
	movzx	eax, BYTE PTR [rax]
	.loc 1 146 13
	cmp	al, 116
	jne	.L64
	.loc 1 147 12
	mov	rax, QWORD PTR -72[rbp]
	lea	rdx, 1[rax]
	mov	QWORD PTR -72[rbp], rdx
	mov	rcx, QWORD PTR -56[rbp]
	mov	rdx, rax
	mov	rsi, rcx
	mov	edi, 3
	call	new_token
	.loc 1 147 10
	mov	QWORD PTR -56[rbp], rax
	.loc 1 148 9
	mov	rax, QWORD PTR -56[rbp]
	.loc 1 148 15
	mov	DWORD PTR 16[rax], 9
	jmp	.L62
.L64:
	.loc 1 149 14
	mov	rax, QWORD PTR -72[rbp]
	movzx	eax, BYTE PTR [rax]
	.loc 1 149 13
	cmp	al, 92
	jne	.L65
	.loc 1 150 12
	mov	rax, QWORD PTR -72[rbp]
	lea	rdx, 1[rax]
	mov	QWORD PTR -72[rbp], rdx
	mov	rcx, QWORD PTR -56[rbp]
	mov	rdx, rax
	mov	rsi, rcx
	mov	edi, 3
	call	new_token
	.loc 1 150 10
	mov	QWORD PTR -56[rbp], rax
	.loc 1 151 9
	mov	rax, QWORD PTR -56[rbp]
	.loc 1 151 15
	mov	DWORD PTR 16[rax], 92
	jmp	.L62
.L65:
	.loc 1 152 14
	mov	rax, QWORD PTR -72[rbp]
	movzx	eax, BYTE PTR [rax]
	.loc 1 152 13
	cmp	al, 39
	jne	.L62
	.loc 1 153 12
	mov	rax, QWORD PTR -72[rbp]
	lea	rdx, 1[rax]
	mov	QWORD PTR -72[rbp], rdx
	mov	rcx, QWORD PTR -56[rbp]
	mov	rdx, rax
	mov	rsi, rcx
	mov	edi, 3
	call	new_token
	.loc 1 153 10
	mov	QWORD PTR -56[rbp], rax
	.loc 1 154 9
	mov	rax, QWORD PTR -56[rbp]
	.loc 1 154 15
	mov	DWORD PTR 16[rax], 39
	jmp	.L62
.L60:
	.loc 1 157 11
	mov	rdx, QWORD PTR -72[rbp]
	mov	rax, QWORD PTR -56[rbp]
	mov	rsi, rax
	mov	edi, 3
	call	new_token
	.loc 1 157 9
	mov	QWORD PTR -56[rbp], rax
	.loc 1 158 18
	mov	rax, QWORD PTR -72[rbp]
	lea	rdx, 1[rax]
	mov	QWORD PTR -72[rbp], rdx
	.loc 1 158 16
	movzx	edx, BYTE PTR [rax]
	.loc 1 158 8
	mov	rax, QWORD PTR -56[rbp]
	.loc 1 158 16
	movsx	edx, dl
	.loc 1 158 14
	mov	DWORD PTR 16[rax], edx
.L62:
	.loc 1 161 5
	mov	rax, QWORD PTR -72[rbp]
	add	rax, 1
	mov	QWORD PTR -72[rbp], rax
	.loc 1 162 4
	jmp	.L51
.L59:
	.loc 1 166 15
	mov	rax, QWORD PTR -72[rbp]
	movzx	eax, BYTE PTR [rax]
	.loc 1 166 6
	movsx	eax, al
	mov	edi, eax
	call	is_digit
	.loc 1 166 5
	test	al, al
	je	.L66
	.loc 1 167 10
	mov	rax, QWORD PTR -56[rbp]
	mov	eax, DWORD PTR [rax]
	.loc 1 167 6
	cmp	eax, 2
	jne	.L67
	.loc 1 168 11
	mov	rax, QWORD PTR -72[rbp]
	lea	rdx, 1[rax]
	mov	QWORD PTR -72[rbp], rdx
	mov	rcx, QWORD PTR -56[rbp]
	mov	rdx, rax
	mov	rsi, rcx
	mov	edi, 2
	call	new_token
	.loc 1 168 9
	mov	QWORD PTR -56[rbp], rax
	.loc 1 169 8
	mov	rax, QWORD PTR -56[rbp]
	.loc 1 169 14
	mov	DWORD PTR 32[rax], 1
	jmp	.L51
.L67:
	.loc 1 172 11
	mov	rdx, QWORD PTR -72[rbp]
	mov	rax, QWORD PTR -56[rbp]
	mov	rsi, rax
	mov	edi, 3
	call	new_token
	.loc 1 172 9
	mov	QWORD PTR -56[rbp], rax
	.loc 1 174 16
	mov	rax, QWORD PTR -72[rbp]
	lea	rcx, -72[rbp]
	mov	edx, 10
	mov	rsi, rcx
	mov	rdi, rax
	call	strtol@PLT
	mov	rdx, rax
	.loc 1 174 8
	mov	rax, QWORD PTR -56[rbp]
	.loc 1 174 14
	mov	DWORD PTR 16[rax], edx
	.loc 1 176 4
	jmp	.L51
.L66:
	.loc 1 180 6
	mov	rax, QWORD PTR -72[rbp]
	lea	rdx, -1[rbp]
	mov	rsi, rdx
	mov	rdi, rax
	call	is_symbol
	.loc 1 180 5
	test	al, al
	je	.L69
	.loc 1 181 10
	mov	rdx, QWORD PTR -72[rbp]
	mov	rax, QWORD PTR -56[rbp]
	mov	rsi, rax
	mov	edi, 1
	call	new_token
	.loc 1 181 8
	mov	QWORD PTR -56[rbp], rax
	.loc 1 182 7
	movzx	eax, BYTE PTR -1[rbp]
	.loc 1 182 6
	test	al, al
	je	.L70
	.loc 1 183 6
	mov	rax, QWORD PTR -72[rbp]
	add	rax, 1
	mov	QWORD PTR -72[rbp], rax
	jmp	.L51
.L70:
	.loc 1 185 7
	mov	rax, QWORD PTR -72[rbp]
	add	rax, 2
	mov	QWORD PTR -72[rbp], rax
	.loc 1 186 8
	mov	rax, QWORD PTR -56[rbp]
	.loc 1 186 14
	mov	DWORD PTR 32[rax], 2
	.loc 1 188 4
	jmp	.L51
.L69:
	.loc 1 191 6
	lea	rdx, -56[rbp]
	lea	rax, -72[rbp]
	mov	r8d, 0
	mov	rcx, rdx
	mov	edx, 4
	lea	rsi, .LC0[rip]
	mov	rdi, rax
	call	tokenize_reserved
	.loc 1 191 5
	test	al, al
	je	.L72
	.loc 1 191 3 discriminator 1
	jmp	.L51
.L72:
	.loc 1 192 6
	lea	rdx, -56[rbp]
	lea	rax, -72[rbp]
	mov	r8d, 0
	mov	rcx, rdx
	mov	edx, 5
	lea	rsi, .LC1[rip]
	mov	rdi, rax
	call	tokenize_reserved
	.loc 1 192 5
	test	al, al
	je	.L73
	.loc 1 192 3 discriminator 1
	jmp	.L51
.L73:
	.loc 1 193 6
	lea	rdx, -56[rbp]
	lea	rax, -72[rbp]
	mov	r8d, 0
	mov	rcx, rdx
	mov	edx, 4
	lea	rsi, .LC2[rip]
	mov	rdi, rax
	call	tokenize_reserved
	.loc 1 193 5
	test	al, al
	je	.L74
	.loc 1 193 3 discriminator 1
	jmp	.L51
.L74:
	.loc 1 194 6
	lea	rdx, -56[rbp]
	lea	rax, -72[rbp]
	mov	r8d, 0
	mov	rcx, rdx
	mov	edx, 3
	lea	rsi, .LC3[rip]
	mov	rdi, rax
	call	tokenize_reserved
	.loc 1 194 5
	test	al, al
	je	.L75
	.loc 1 194 3 discriminator 1
	jmp	.L51
.L75:
	.loc 1 195 6
	lea	rdx, -56[rbp]
	lea	rax, -72[rbp]
	mov	r8d, 0
	mov	rcx, rdx
	mov	edx, 6
	lea	rsi, .LC4[rip]
	mov	rdi, rax
	call	tokenize_reserved
	.loc 1 195 5
	test	al, al
	je	.L76
	.loc 1 195 3 discriminator 1
	jmp	.L51
.L76:
	.loc 1 196 6
	lea	rdx, -56[rbp]
	lea	rax, -72[rbp]
	mov	r8d, 0
	mov	rcx, rdx
	mov	edx, 4
	lea	rsi, .LC5[rip]
	mov	rdi, rax
	call	tokenize_reserved
	.loc 1 196 5
	test	al, al
	je	.L77
	.loc 1 196 3 discriminator 1
	jmp	.L51
.L77:
	.loc 1 197 6
	lea	rdx, -56[rbp]
	lea	rax, -72[rbp]
	mov	r8d, 4
	mov	rcx, rdx
	mov	edx, 2
	lea	rsi, .LC6[rip]
	mov	rdi, rax
	call	tokenize_reserved
	.loc 1 197 5
	test	al, al
	je	.L78
	.loc 1 197 3 discriminator 1
	jmp	.L51
.L78:
	.loc 1 198 6
	lea	rdx, -56[rbp]
	lea	rax, -72[rbp]
	mov	r8d, 5
	mov	rcx, rdx
	mov	edx, 4
	lea	rsi, .LC7[rip]
	mov	rdi, rax
	call	tokenize_reserved
	.loc 1 198 5
	test	al, al
	je	.L79
	.loc 1 198 3 discriminator 1
	jmp	.L51
.L79:
	.loc 1 199 6
	lea	rdx, -56[rbp]
	lea	rax, -72[rbp]
	mov	r8d, 6
	mov	rcx, rdx
	mov	edx, 6
	lea	rsi, .LC8[rip]
	mov	rdi, rax
	call	tokenize_reserved
	.loc 1 199 5
	test	al, al
	je	.L80
	.loc 1 199 3 discriminator 1
	jmp	.L51
.L80:
	.loc 1 200 6
	lea	rdx, -56[rbp]
	lea	rax, -72[rbp]
	mov	r8d, 7
	mov	rcx, rdx
	mov	edx, 4
	lea	rsi, .LC9[rip]
	mov	rdi, rax
	call	tokenize_reserved
	.loc 1 200 5
	test	al, al
	je	.L81
	.loc 1 200 3 discriminator 1
	jmp	.L51
.L81:
	.loc 1 201 6
	lea	rdx, -56[rbp]
	lea	rax, -72[rbp]
	mov	r8d, 8
	mov	rcx, rdx
	mov	edx, 7
	lea	rsi, .LC10[rip]
	mov	rdi, rax
	call	tokenize_reserved
	.loc 1 201 5
	test	al, al
	je	.L82
	.loc 1 201 3 discriminator 1
	jmp	.L51
.L82:
	.loc 1 202 6
	lea	rdx, -56[rbp]
	lea	rax, -72[rbp]
	mov	r8d, 11
	mov	rcx, rdx
	mov	edx, 3
	lea	rsi, .LC11[rip]
	mov	rdi, rax
	call	tokenize_reserved
	.loc 1 202 5
	test	al, al
	je	.L83
	.loc 1 202 3 discriminator 1
	jmp	.L51
.L83:
	.loc 1 203 6
	lea	rdx, -56[rbp]
	lea	rax, -72[rbp]
	mov	r8d, 9
	mov	rcx, rdx
	mov	edx, 2
	lea	rsi, .LC12[rip]
	mov	rdi, rax
	call	tokenize_reserved
	.loc 1 203 5
	test	al, al
	je	.L84
	.loc 1 203 3 discriminator 1
	jmp	.L51
.L84:
	.loc 1 204 6
	lea	rdx, -56[rbp]
	lea	rax, -72[rbp]
	mov	r8d, 10
	mov	rcx, rdx
	mov	edx, 5
	lea	rsi, .LC13[rip]
	mov	rdi, rax
	call	tokenize_reserved
	.loc 1 204 5
	test	al, al
	je	.L85
	.loc 1 204 3 discriminator 1
	jmp	.L51
.L85:
	.loc 1 205 6
	lea	rdx, -56[rbp]
	lea	rax, -72[rbp]
	mov	r8d, 15
	mov	rcx, rdx
	mov	edx, 5
	lea	rsi, .LC14[rip]
	mov	rdi, rax
	call	tokenize_reserved
	.loc 1 205 5
	test	al, al
	je	.L86
	.loc 1 205 3 discriminator 1
	jmp	.L51
.L86:
	.loc 1 206 6
	lea	rdx, -56[rbp]
	lea	rax, -72[rbp]
	mov	r8d, 16
	mov	rcx, rdx
	mov	edx, 8
	lea	rsi, .LC15[rip]
	mov	rdi, rax
	call	tokenize_reserved
	.loc 1 206 5
	test	al, al
	je	.L87
	.loc 1 206 3 discriminator 1
	jmp	.L51
.L87:
	.loc 1 207 6
	lea	rdx, -56[rbp]
	lea	rax, -72[rbp]
	mov	r8d, 12
	mov	rcx, rdx
	mov	edx, 6
	lea	rsi, .LC16[rip]
	mov	rdi, rax
	call	tokenize_reserved
	.loc 1 207 5
	test	al, al
	je	.L88
	.loc 1 207 3 discriminator 1
	jmp	.L51
.L88:
	.loc 1 208 6
	lea	rdx, -56[rbp]
	lea	rax, -72[rbp]
	mov	r8d, 17
	mov	rcx, rdx
	mov	edx, 7
	lea	rsi, .LC17[rip]
	mov	rdi, rax
	call	tokenize_reserved
	.loc 1 208 5
	test	al, al
	je	.L89
	.loc 1 208 3 discriminator 1
	jmp	.L51
.L89:
	.loc 1 209 6
	lea	rdx, -56[rbp]
	lea	rax, -72[rbp]
	mov	r8d, 18
	mov	rcx, rdx
	mov	edx, 6
	lea	rsi, .LC18[rip]
	mov	rdi, rax
	call	tokenize_reserved
	.loc 1 209 5
	test	al, al
	je	.L90
	.loc 1 209 3 discriminator 1
	jmp	.L51
.L90:
	.loc 1 210 6
	lea	rdx, -56[rbp]
	lea	rax, -72[rbp]
	mov	r8d, 19
	mov	rcx, rdx
	mov	edx, 6
	lea	rsi, .LC19[rip]
	mov	rdi, rax
	call	tokenize_reserved
	.loc 1 210 5
	test	al, al
	je	.L91
	.loc 1 210 3 discriminator 1
	jmp	.L51
.L91:
	.loc 1 211 6
	lea	rdx, -56[rbp]
	lea	rax, -72[rbp]
	mov	r8d, 20
	mov	rcx, rdx
	mov	edx, 13
	lea	rsi, .LC20[rip]
	mov	rdi, rax
	call	tokenize_reserved
	.loc 1 211 5
	test	al, al
	je	.L92
	.loc 1 211 3 discriminator 1
	jmp	.L51
.L92:
	.loc 1 214 6
	lea	rdx, -56[rbp]
	lea	rax, -72[rbp]
	mov	r8d, 21
	mov	rcx, rdx
	mov	edx, 6
	lea	rsi, .LC21[rip]
	mov	rdi, rax
	call	tokenize_reserved
	.loc 1 214 5
	test	al, al
	je	.L93
	.loc 1 214 3 discriminator 1
	jmp	.L51
.L93:
	.loc 1 220 15
	mov	rax, QWORD PTR -72[rbp]
	movzx	eax, BYTE PTR [rax]
	.loc 1 220 6
	movsx	eax, al
	mov	edi, eax
	call	is_block
	.loc 1 220 5
	test	al, al
	je	.L94
	.loc 1 221 10
	mov	rdx, QWORD PTR -72[rbp]
	mov	rax, QWORD PTR -56[rbp]
	mov	rsi, rax
	mov	edi, 13
	call	new_token
	.loc 1 221 8
	mov	QWORD PTR -56[rbp], rax
	.loc 1 222 7
	mov	rax, QWORD PTR -56[rbp]
	.loc 1 222 13
	mov	DWORD PTR 32[rax], 1
	.loc 1 223 7
	mov	rax, QWORD PTR -56[rbp]
	.loc 1 223 13
	mov	rdx, QWORD PTR -72[rbp]
	mov	QWORD PTR 24[rax], rdx
	.loc 1 224 5
	mov	rax, QWORD PTR -72[rbp]
	add	rax, 1
	mov	QWORD PTR -72[rbp], rax
	.loc 1 225 4
	jmp	.L51
.L94:
	.loc 1 229 6
	mov	rax, QWORD PTR -72[rbp]
	movzx	eax, BYTE PTR [rax]
	.loc 1 229 5
	cmp	al, 34
	jne	.L95
	.loc 1 230 5
	mov	rax, QWORD PTR -72[rbp]
	add	rax, 1
	mov	QWORD PTR -72[rbp], rax
	.loc 1 231 9
	jmp	.L96
.L97:
	.loc 1 232 11
	mov	rax, QWORD PTR -72[rbp]
	lea	rdx, 1[rax]
	mov	QWORD PTR -72[rbp], rdx
	mov	rcx, QWORD PTR -56[rbp]
	mov	rdx, rax
	mov	rsi, rcx
	mov	edi, 14
	call	new_token
	.loc 1 232 9
	mov	QWORD PTR -56[rbp], rax
.L96:
	.loc 1 231 15
	mov	rax, QWORD PTR -72[rbp]
	sub	rax, 1
	.loc 1 231 12
	movzx	eax, BYTE PTR [rax]
	.loc 1 231 9
	cmp	al, 92
	je	.L97
	.loc 1 231 30 discriminator 1
	mov	rax, QWORD PTR -72[rbp]
	movzx	eax, BYTE PTR [rax]
	.loc 1 231 10 discriminator 1
	cmp	al, 34
	jne	.L97
	.loc 1 234 5
	mov	rax, QWORD PTR -72[rbp]
	add	rax, 1
	mov	QWORD PTR -72[rbp], rax
	.loc 1 235 4
	jmp	.L51
.L95:
	.loc 1 239 6
	mov	rax, QWORD PTR -72[rbp]
	movzx	eax, BYTE PTR [rax]
	.loc 1 239 5
	cmp	al, 92
	jne	.L98
	.loc 1 239 23 discriminator 1
	mov	rax, QWORD PTR -72[rbp]
	add	rax, 1
	.loc 1 239 20 discriminator 1
	movzx	eax, BYTE PTR [rax]
	.loc 1 239 17 discriminator 1
	cmp	al, 92
	jne	.L98
	.loc 1 240 10
	mov	rax, QWORD PTR -72[rbp]
	lea	rdx, 1[rax]
	mov	QWORD PTR -72[rbp], rdx
	mov	rcx, QWORD PTR -56[rbp]
	mov	rdx, rax
	mov	rsi, rcx
	mov	edi, 2
	call	new_token
	.loc 1 240 8
	mov	QWORD PTR -56[rbp], rax
	.loc 1 241 5
	mov	rax, QWORD PTR -72[rbp]
	add	rax, 1
	mov	QWORD PTR -72[rbp], rax
	.loc 1 242 4
	jmp	.L51
.L98:
	.loc 1 246 15
	mov	rax, QWORD PTR -72[rbp]
	movzx	eax, BYTE PTR [rax]
	.loc 1 246 6
	movsx	eax, al
	mov	edi, eax
	call	is_alnum
	.loc 1 246 5
	test	al, al
	je	.L99
	.loc 1 247 9
	jmp	.L100
.L101:
	.loc 1 248 11
	mov	rax, QWORD PTR -72[rbp]
	lea	rdx, 1[rax]
	mov	QWORD PTR -72[rbp], rdx
	mov	rcx, QWORD PTR -56[rbp]
	mov	rdx, rax
	mov	rsi, rcx
	mov	edi, 2
	call	new_token
	.loc 1 248 9
	mov	QWORD PTR -56[rbp], rax
	.loc 1 249 8
	mov	rax, QWORD PTR -56[rbp]
	.loc 1 249 14
	mov	DWORD PTR 32[rax], 1
.L100:
	.loc 1 247 19
	mov	rax, QWORD PTR -72[rbp]
	movzx	eax, BYTE PTR [rax]
	.loc 1 247 10
	movsx	eax, al
	mov	edi, eax
	call	is_alnum
	.loc 1 247 9
	test	al, al
	jne	.L101
	.loc 1 251 4
	jmp	.L51
.L99:
	.loc 1 254 3
	mov	rax, QWORD PTR -72[rbp]
	lea	rsi, .LC22[rip]
	mov	rdi, rax
	call	error_at@PLT
.L51:
	.loc 1 114 8
	mov	rax, QWORD PTR -72[rbp]
	movzx	eax, BYTE PTR [rax]
	.loc 1 114 7
	test	al, al
	jne	.L102
	.loc 1 258 2
	mov	rdx, QWORD PTR -72[rbp]
	mov	rax, QWORD PTR -56[rbp]
	mov	rsi, rax
	mov	edi, 22
	call	new_token
	.loc 1 259 13
	mov	rax, QWORD PTR -40[rbp]
	.loc 1 260 1
	leave
	.cfi_def_cfa 7, 8
	ret
	.cfi_endproc
.LFE9:
	.size	tokenize, .-tokenize
.Letext0:
	.file 2 "/usr/lib/gcc/x86_64-linux-gnu/9/include/stddef.h"
	.file 3 "/usr/include/x86_64-linux-gnu/bits/types.h"
	.file 4 "/usr/include/x86_64-linux-gnu/bits/types/struct_FILE.h"
	.file 5 "/usr/include/x86_64-linux-gnu/bits/types/FILE.h"
	.file 6 "/usr/include/stdio.h"
	.file 7 "../include/cc_sakura.h"
	.section	.note.GNU-stack,"",@progbits
