	.file	"declare.c"
	.intel_syntax noprefix
	.text
.Ltext0:
	.comm	locals,8,8
	.comm	globals,8,8
	.comm	structs,8,8
	.comm	enumerations,8,8
	.comm	defined_types,8,8
	.comm	outside_lvar,8,8
	.comm	outside_struct,8,8
	.comm	outside_enum,8,8
	.comm	outside_deftype,8,8
	.section	.rodata
.LC0:
	.string	"{"
.LC1:
	.string	"multiple definition"
	.text
	.globl	set_type
	.type	set_type, @function
set_type:
.LFB0:
	.file 1 "../src/declare.c"
	.loc 1 17 39
	.cfi_startproc
	push	rbp
	.cfi_def_cfa_offset 16
	.cfi_offset 6, -16
	mov	rbp, rsp
	.cfi_def_cfa_register 6
	sub	rsp, 64
	mov	QWORD PTR -56[rbp], rdi
	mov	QWORD PTR -64[rbp], rsi
	.loc 1 18 9
	mov	QWORD PTR -8[rbp], 0
	.loc 1 19 9
	mov	QWORD PTR -16[rbp], 0
	.loc 1 20 6
	mov	DWORD PTR -20[rbp], 0
	.loc 1 22 13
	mov	rax, QWORD PTR -56[rbp]
	mov	eax, DWORD PTR [rax]
	.loc 1 22 2
	cmp	eax, 7
	je	.L2
	cmp	eax, 7
	ja	.L3
	cmp	eax, 5
	jbe	.L16
	cmp	eax, 6
	jne	.L3
	.loc 1 32 18
	mov	edx, DWORD PTR -20[rbp]
	mov	rax, QWORD PTR -64[rbp]
	mov	esi, edx
	mov	rdi, rax
	call	find_struc@PLT
	mov	QWORD PTR -16[rbp], rax
	.loc 1 33 21
	mov	rax, QWORD PTR -64[rbp]
	mov	edx, DWORD PTR 32[rax]
	.loc 1 33 16
	mov	rax, QWORD PTR -56[rbp]
	mov	DWORD PTR 36[rax], edx
	.loc 1 34 21
	mov	rax, QWORD PTR -64[rbp]
	mov	rdx, QWORD PTR 24[rax]
	.loc 1 34 16
	mov	rax, QWORD PTR -56[rbp]
	mov	QWORD PTR 40[rax], rdx
	.loc 1 35 6
	cmp	QWORD PTR -16[rbp], 0
	je	.L6
	.loc 1 36 14
	mov	rax, QWORD PTR -56[rbp]
	mov	DWORD PTR [rax], 6
	.loc 1 37 31
	mov	rax, QWORD PTR -16[rbp]
	mov	edx, DWORD PTR 4[rax]
	.loc 1 37 18
	mov	rax, QWORD PTR -56[rbp]
	mov	DWORD PTR 16[rax], edx
	.loc 1 39 19
	mov	rax, QWORD PTR -16[rbp]
	mov	rax, QWORD PTR 16[rax]
	.loc 1 39 7
	test	rax, rax
	jne	.L17
	.loc 1 39 39 discriminator 1
	lea	rdi, .LC0[rip]
	call	consume@PLT
	.loc 1 39 36 discriminator 1
	test	al, al
	je	.L17
	.loc 1 40 28
	mov	rax, QWORD PTR -16[rbp]
	add	rax, 4
	mov	rdi, rax
	call	register_struc_member
	.loc 1 40 26
	mov	rdx, QWORD PTR -16[rbp]
	mov	QWORD PTR 16[rdx], rax
	.loc 1 59 4
	jmp	.L17
.L6:
.LBB2:
	.loc 1 43 24
	mov	esi, 32
	mov	edi, 1
	call	calloc@PLT
	mov	QWORD PTR -40[rbp], rax
	.loc 1 44 27
	mov	rax, QWORD PTR -64[rbp]
	mov	edx, DWORD PTR 32[rax]
	.loc 1 44 22
	mov	rax, QWORD PTR -40[rbp]
	mov	DWORD PTR [rax], edx
	.loc 1 45 27
	mov	rax, QWORD PTR -64[rbp]
	mov	rdx, QWORD PTR 24[rax]
	.loc 1 45 22
	mov	rax, QWORD PTR -40[rbp]
	mov	QWORD PTR 8[rax], rdx
	.loc 1 47 8
	lea	rdi, .LC0[rip]
	call	consume@PLT
	.loc 1 47 7
	test	al, al
	je	.L8
	.loc 1 48 6
	mov	rax, QWORD PTR -40[rbp]
	mov	rdi, rax
	call	declare_struct
	.loc 1 49 22
	mov	rax, QWORD PTR -56[rbp]
	mov	DWORD PTR [rax], 6
	.loc 1 50 31
	mov	rax, QWORD PTR structs[rip]
	mov	edx, DWORD PTR 4[rax]
	.loc 1 50 22
	mov	rax, QWORD PTR -56[rbp]
	mov	DWORD PTR 16[rax], edx
.LBE2:
	.loc 1 59 4
	jmp	.L17
.L8:
.LBB3:
	.loc 1 53 22
	mov	rax, QWORD PTR -56[rbp]
	mov	DWORD PTR [rax], 6
	.loc 1 54 22
	mov	rdx, QWORD PTR structs[rip]
	mov	rax, QWORD PTR -40[rbp]
	mov	QWORD PTR 24[rax], rdx
	.loc 1 55 22
	mov	rax, QWORD PTR -40[rbp]
	mov	QWORD PTR structs[rip], rax
.LBE3:
	.loc 1 59 4
	jmp	.L17
.L2:
	.loc 1 61 6
	cmp	QWORD PTR -64[rbp], 0
	je	.L9
	.loc 1 62 18
	mov	edx, DWORD PTR -20[rbp]
	mov	rax, QWORD PTR -64[rbp]
	mov	esi, edx
	mov	rdi, rax
	call	find_enum@PLT
	mov	QWORD PTR -8[rbp], rax
.L9:
	.loc 1 65 6
	cmp	QWORD PTR -8[rbp], 0
	je	.L10
	.loc 1 66 14
	mov	rax, QWORD PTR -56[rbp]
	mov	DWORD PTR [rax], 7
	.loc 1 67 18
	mov	rax, QWORD PTR -8[rbp]
	mov	rax, QWORD PTR 16[rax]
	.loc 1 67 7
	test	rax, rax
	jne	.L18
	.loc 1 67 38 discriminator 1
	lea	rdi, .LC0[rip]
	call	consume@PLT
	.loc 1 67 35 discriminator 1
	test	al, al
	je	.L18
	.loc 1 68 27
	call	register_enum_member
	.loc 1 68 25
	mov	rdx, QWORD PTR -8[rbp]
	mov	QWORD PTR 16[rdx], rax
	.loc 1 86 4
	jmp	.L18
.L10:
.LBB4:
	.loc 1 71 22
	mov	esi, 32
	mov	edi, 1
	call	calloc@PLT
	mov	QWORD PTR -32[rbp], rax
	.loc 1 72 7
	cmp	QWORD PTR -64[rbp], 0
	je	.L12
	.loc 1 73 27
	mov	rax, QWORD PTR -64[rbp]
	mov	edx, DWORD PTR 32[rax]
	.loc 1 73 22
	mov	rax, QWORD PTR -32[rbp]
	mov	DWORD PTR [rax], edx
	.loc 1 74 27
	mov	rax, QWORD PTR -64[rbp]
	mov	rdx, QWORD PTR 24[rax]
	.loc 1 74 22
	mov	rax, QWORD PTR -32[rbp]
	mov	QWORD PTR 8[rax], rdx
.L12:
	.loc 1 76 8
	lea	rdi, .LC0[rip]
	call	consume@PLT
	.loc 1 76 7
	test	al, al
	je	.L13
	.loc 1 77 8
	cmp	QWORD PTR -8[rbp], 0
	je	.L14
	.loc 1 77 35 discriminator 1
	mov	rax, QWORD PTR token[rip]
	.loc 1 77 21 discriminator 1
	mov	rax, QWORD PTR 24[rax]
	lea	rsi, .LC1[rip]
	mov	rdi, rax
	call	error_at@PLT
.L14:
	.loc 1 78 6
	mov	rax, QWORD PTR -32[rbp]
	mov	rdi, rax
	call	declare_enum
	.loc 1 79 22
	mov	rax, QWORD PTR -56[rbp]
	mov	DWORD PTR [rax], 7
.LBE4:
	.loc 1 86 4
	jmp	.L18
.L13:
.LBB5:
	.loc 1 81 22
	mov	rdx, QWORD PTR enumerations[rip]
	mov	rax, QWORD PTR -32[rbp]
	mov	QWORD PTR 24[rax], rdx
	.loc 1 82 22
	mov	rax, QWORD PTR -32[rbp]
	mov	QWORD PTR enumerations[rip], rax
	.loc 1 83 22
	mov	rax, QWORD PTR -56[rbp]
	mov	DWORD PTR [rax], 7
.LBE5:
	.loc 1 86 4
	jmp	.L18
.L16:
	.loc 1 29 4
	nop
	jmp	.L3
.L17:
	.loc 1 59 4
	nop
	jmp	.L3
.L18:
	.loc 1 86 4
	nop
.L3:
	.loc 1 89 9
	mov	rax, QWORD PTR -56[rbp]
	.loc 1 90 1
	leave
	.cfi_def_cfa 7, 8
	ret
	.cfi_endproc
.LFE0:
	.size	set_type, .-set_type
	.section	.rodata
.LC2:
	.string	"void"
.LC3:
	.string	"_Bool"
.LC4:
	.string	"char"
.LC5:
	.string	"int"
.LC6:
	.string	"struct"
.LC7:
	.string	"enum"
.LC8:
	.string	"unknown type."
	.text
	.globl	parse_type
	.type	parse_type, @function
parse_type:
.LFB1:
	.loc 1 92 23
	.cfi_startproc
	push	rbp
	.cfi_def_cfa_offset 16
	.cfi_offset 6, -16
	mov	rbp, rsp
	.cfi_def_cfa_register 6
	sub	rsp, 32
	.loc 1 93 19
	mov	esi, 48
	mov	edi, 1
	call	calloc@PLT
	mov	QWORD PTR -8[rbp], rax
	.loc 1 94 6
	mov	DWORD PTR -12[rbp], 0
	.loc 1 95 6
	mov	DWORD PTR -16[rbp], 0
	.loc 1 98 5
	mov	esi, 0
	lea	rdi, .LC2[rip]
	call	consume_reserved_word@PLT
	.loc 1 98 4
	test	al, al
	je	.L20
	.loc 1 99 12
	mov	rax, QWORD PTR -8[rbp]
	mov	DWORD PTR [rax], 0
	.loc 1 100 10
	mov	rax, QWORD PTR -8[rbp]
	mov	esi, 0
	mov	rdi, rax
	call	set_type
	mov	QWORD PTR -8[rbp], rax
	jmp	.L21
.L20:
	.loc 1 101 11
	mov	esi, 0
	lea	rdi, .LC3[rip]
	call	consume_reserved_word@PLT
	.loc 1 101 10
	test	al, al
	je	.L22
	.loc 1 102 12
	mov	rax, QWORD PTR -8[rbp]
	mov	DWORD PTR [rax], 1
	.loc 1 103 10
	mov	rax, QWORD PTR -8[rbp]
	mov	esi, 0
	mov	rdi, rax
	call	set_type
	mov	QWORD PTR -8[rbp], rax
	jmp	.L21
.L22:
	.loc 1 104 11
	mov	esi, 0
	lea	rdi, .LC4[rip]
	call	consume_reserved_word@PLT
	.loc 1 104 10
	test	al, al
	je	.L23
	.loc 1 105 12
	mov	rax, QWORD PTR -8[rbp]
	mov	DWORD PTR [rax], 2
	.loc 1 106 10
	mov	rax, QWORD PTR -8[rbp]
	mov	esi, 0
	mov	rdi, rax
	call	set_type
	mov	QWORD PTR -8[rbp], rax
	jmp	.L21
.L23:
	.loc 1 107 11
	mov	esi, 0
	lea	rdi, .LC5[rip]
	call	consume_reserved_word@PLT
	.loc 1 107 10
	test	al, al
	je	.L24
	.loc 1 108 12
	mov	rax, QWORD PTR -8[rbp]
	mov	DWORD PTR [rax], 3
	.loc 1 109 10
	mov	rax, QWORD PTR -8[rbp]
	mov	esi, 0
	mov	rdi, rax
	call	set_type
	mov	QWORD PTR -8[rbp], rax
	jmp	.L21
.L24:
	.loc 1 110 11
	mov	esi, 0
	lea	rdi, .LC6[rip]
	call	consume_reserved_word@PLT
	.loc 1 110 10
	test	al, al
	je	.L25
	.loc 1 111 12
	mov	rax, QWORD PTR -8[rbp]
	mov	DWORD PTR [rax], 6
	.loc 1 112 10
	call	consume_ident@PLT
	mov	rdx, rax
	mov	rax, QWORD PTR -8[rbp]
	mov	rsi, rdx
	mov	rdi, rax
	call	set_type
	mov	QWORD PTR -8[rbp], rax
	jmp	.L21
.L25:
	.loc 1 113 11
	mov	esi, 0
	lea	rdi, .LC7[rip]
	call	consume_reserved_word@PLT
	.loc 1 113 10
	test	al, al
	je	.L26
	.loc 1 114 12
	mov	rax, QWORD PTR -8[rbp]
	mov	DWORD PTR [rax], 7
	.loc 1 115 10
	call	consume_ident@PLT
	mov	rdx, rax
	mov	rax, QWORD PTR -8[rbp]
	mov	rsi, rdx
	mov	rdi, rax
	call	set_type
	mov	QWORD PTR -8[rbp], rax
	jmp	.L21
.L26:
.LBB6:
	.loc 1 117 16
	call	consume_ident@PLT
	mov	QWORD PTR -24[rbp], rax
	.loc 1 118 25
	mov	edx, DWORD PTR -16[rbp]
	mov	rax, QWORD PTR -24[rbp]
	mov	esi, edx
	mov	rdi, rax
	call	find_defined_type@PLT
	mov	QWORD PTR -32[rbp], rax
	.loc 1 119 5
	cmp	QWORD PTR -32[rbp], 0
	je	.L27
	.loc 1 120 24
	mov	rax, QWORD PTR -32[rbp]
	mov	rdx, QWORD PTR 16[rax]
	.loc 1 120 13
	mov	rax, QWORD PTR -24[rbp]
	mov	QWORD PTR 24[rax], rdx
	.loc 1 121 24
	mov	rax, QWORD PTR -32[rbp]
	mov	edx, DWORD PTR 24[rax]
	.loc 1 121 13
	mov	rax, QWORD PTR -24[rbp]
	mov	DWORD PTR 32[rax], edx
	.loc 1 122 15
	mov	rax, QWORD PTR -32[rbp]
	mov	rax, QWORD PTR 32[rax]
	mov	rdx, QWORD PTR -24[rbp]
	mov	rsi, rdx
	mov	rdi, rax
	call	set_type
	mov	QWORD PTR -8[rbp], rax
	jmp	.L21
.L27:
	.loc 1 124 4
	mov	rax, QWORD PTR -24[rbp]
	mov	rax, QWORD PTR 24[rax]
	lea	rsi, .LC8[rip]
	mov	rdi, rax
	call	error_at@PLT
.L21:
.LBE6:
	.loc 1 128 16
	mov	rax, QWORD PTR -8[rbp]
	mov	rdi, rax
	call	type_size@PLT
	.loc 1 128 14
	mov	rdx, QWORD PTR -8[rbp]
	mov	DWORD PTR 16[rdx], eax
	.loc 1 129 16
	mov	rax, QWORD PTR -8[rbp]
	mov	rdi, rax
	call	type_align@PLT
	.loc 1 129 14
	mov	rdx, QWORD PTR -8[rbp]
	mov	DWORD PTR 20[rdx], eax
	.loc 1 132 7
	jmp	.L28
.L30:
	.loc 1 133 13
	add	DWORD PTR -12[rbp], 1
	.loc 1 134 16
	mov	rax, QWORD PTR token[rip]
	mov	rax, QWORD PTR 8[rax]
	.loc 1 134 9
	mov	QWORD PTR token[rip], rax
.L28:
	.loc 1 132 13
	mov	rax, QWORD PTR token[rip]
	mov	eax, DWORD PTR [rax]
	.loc 1 132 7
	cmp	eax, 1
	jne	.L29
	.loc 1 132 45 discriminator 1
	mov	rax, QWORD PTR token[rip]
	mov	rax, QWORD PTR 24[rax]
	.loc 1 132 38 discriminator 1
	movzx	eax, BYTE PTR [rax]
	.loc 1 132 35 discriminator 1
	cmp	al, 42
	je	.L30
.L29:
	.loc 1 138 9
	mov	edx, DWORD PTR -12[rbp]
	mov	rax, QWORD PTR -8[rbp]
	mov	esi, edx
	mov	rdi, rax
	call	insert_ptr_type
	mov	QWORD PTR -8[rbp], rax
	.loc 1 140 9
	mov	rax, QWORD PTR -8[rbp]
	.loc 1 141 1
	leave
	.cfi_def_cfa 7, 8
	ret
	.cfi_endproc
.LFE1:
	.size	parse_type, .-parse_type
	.globl	insert_ptr_type
	.type	insert_ptr_type, @function
insert_ptr_type:
.LFB2:
	.loc 1 143 50
	.cfi_startproc
	push	rbp
	.cfi_def_cfa_offset 16
	.cfi_offset 6, -16
	mov	rbp, rsp
	.cfi_def_cfa_register 6
	sub	rsp, 32
	mov	QWORD PTR -24[rbp], rdi
	mov	DWORD PTR -28[rbp], esi
	.loc 1 145 4
	cmp	DWORD PTR -28[rbp], 0
	je	.L33
.LBB7:
	.loc 1 146 11
	mov	DWORD PTR -12[rbp], 0
	.loc 1 146 3
	jmp	.L34
.L35:
	.loc 1 147 14 discriminator 3
	mov	esi, 48
	mov	edi, 1
	call	calloc@PLT
	mov	QWORD PTR -8[rbp], rax
	.loc 1 148 20 discriminator 3
	mov	rax, QWORD PTR -8[rbp]
	mov	DWORD PTR [rax], 4
	.loc 1 149 22 discriminator 3
	mov	rax, QWORD PTR -8[rbp]
	mov	rdi, rax
	call	type_size@PLT
	.loc 1 149 20 discriminator 3
	mov	rdx, QWORD PTR -8[rbp]
	mov	DWORD PTR 16[rdx], eax
	.loc 1 150 22 discriminator 3
	mov	rax, QWORD PTR -8[rbp]
	mov	rdi, rax
	call	type_align@PLT
	.loc 1 150 20 discriminator 3
	mov	rdx, QWORD PTR -8[rbp]
	mov	DWORD PTR 20[rdx], eax
	.loc 1 151 20 discriminator 3
	mov	rax, QWORD PTR -8[rbp]
	mov	rdx, QWORD PTR -24[rbp]
	mov	QWORD PTR 8[rax], rdx
	.loc 1 152 9 discriminator 3
	mov	rax, QWORD PTR -8[rbp]
	mov	QWORD PTR -24[rbp], rax
	.loc 1 146 31 discriminator 3
	add	DWORD PTR -12[rbp], 1
.L34:
	.loc 1 146 3 discriminator 1
	mov	eax, DWORD PTR -12[rbp]
	cmp	eax, DWORD PTR -28[rbp]
	jl	.L35
.LBE7:
	.loc 1 155 10
	mov	rax, QWORD PTR -8[rbp]
	jmp	.L36
.L33:
	.loc 1 157 10
	mov	rax, QWORD PTR -24[rbp]
.L36:
	.loc 1 159 1
	leave
	.cfi_def_cfa 7, 8
	ret
	.cfi_endproc
.LFE2:
	.size	insert_ptr_type, .-insert_ptr_type
	.section	.rodata
.LC9:
	.string	"not a variable."
.LC10:
	.string	"["
.LC11:
	.string	"]"
	.text
	.globl	declare_global_variable
	.type	declare_global_variable, @function
declare_global_variable:
.LFB3:
	.loc 1 161 81
	.cfi_startproc
	push	rbp
	.cfi_def_cfa_offset 16
	.cfi_offset 6, -16
	mov	rbp, rsp
	.cfi_def_cfa_register 6
	push	rbx
	sub	rsp, 72
	.cfi_offset 3, -24
	mov	DWORD PTR -52[rbp], edi
	mov	QWORD PTR -64[rbp], rsi
	mov	QWORD PTR -72[rbp], rdx
	.loc 1 163 4
	cmp	QWORD PTR -64[rbp], 0
	jne	.L38
	.loc 1 163 30 discriminator 1
	mov	rax, QWORD PTR token[rip]
	.loc 1 163 16 discriminator 1
	mov	rax, QWORD PTR 24[rax]
	lea	rsi, .LC9[rip]
	mov	rdi, rax
	call	error_at@PLT
.L38:
	.loc 1 167 15
	mov	esi, 72
	mov	edi, 1
	call	calloc@PLT
	mov	QWORD PTR -32[rbp], rax
	.loc 1 168 13
	mov	rax, QWORD PTR -32[rbp]
	mov	DWORD PTR [rax], 23
	.loc 1 170 15
	mov	esi, 40
	mov	edi, 1
	call	calloc@PLT
	mov	QWORD PTR -40[rbp], rax
	.loc 1 171 13
	mov	rdx, QWORD PTR globals[rip]
	mov	rax, QWORD PTR -40[rbp]
	mov	QWORD PTR 24[rax], rdx
	.loc 1 172 23
	mov	rax, QWORD PTR -64[rbp]
	mov	edx, DWORD PTR 32[rax]
	.loc 1 172 13
	mov	rax, QWORD PTR -40[rbp]
	mov	DWORD PTR [rax], edx
	.loc 1 173 23
	mov	rax, QWORD PTR -64[rbp]
	mov	rdx, QWORD PTR 24[rax]
	.loc 1 173 13
	mov	rax, QWORD PTR -40[rbp]
	mov	QWORD PTR 8[rax], rdx
	.loc 1 174 13
	mov	rax, QWORD PTR -40[rbp]
	mov	rdx, QWORD PTR -72[rbp]
	mov	QWORD PTR 16[rax], rdx
	.loc 1 175 6
	mov	rax, QWORD PTR -40[rbp]
	mov	rbx, QWORD PTR 16[rax]
	.loc 1 175 22
	mov	rax, QWORD PTR -72[rbp]
	mov	rdi, rax
	call	type_size@PLT
	.loc 1 175 20
	mov	DWORD PTR 16[rbx], eax
	.loc 1 176 6
	mov	rax, QWORD PTR -40[rbp]
	mov	rbx, QWORD PTR 16[rax]
	.loc 1 176 22
	mov	rax, QWORD PTR -72[rbp]
	mov	rdi, rax
	call	type_align@PLT
	.loc 1 176 20
	mov	DWORD PTR 20[rbx], eax
	.loc 1 179 15
	mov	rax, QWORD PTR -40[rbp]
	mov	rax, QWORD PTR 16[rax]
	mov	edx, DWORD PTR -52[rbp]
	mov	esi, edx
	mov	rdi, rax
	call	insert_ptr_type
	.loc 1 179 13
	mov	rdx, QWORD PTR -40[rbp]
	mov	QWORD PTR 16[rdx], rax
	.loc 1 182 5
	lea	rdi, .LC10[rip]
	call	check@PLT
	.loc 1 182 4
	test	al, al
	je	.L39
.LBB8:
	.loc 1 183 7
	mov	DWORD PTR -24[rbp], -1
	.loc 1 184 14
	mov	rax, QWORD PTR -32[rbp]
	mov	DWORD PTR 48[rax], -1
	.loc 1 185 14
	mov	rax, QWORD PTR -32[rbp]
	mov	DWORD PTR [rax], 25
	.loc 1 186 8
	jmp	.L40
.L44:
	.loc 1 187 14
	mov	DWORD PTR -20[rbp], -1
	.loc 1 188 8
	lea	rdi, .LC11[rip]
	call	check@PLT
	.loc 1 188 7
	xor	eax, 1
	.loc 1 188 6
	test	al, al
	je	.L41
	.loc 1 190 7
	cmp	DWORD PTR -24[rbp], -1
	jne	.L42
	.loc 1 191 19
	mov	rax, QWORD PTR token[rip]
	.loc 1 191 12
	mov	eax, DWORD PTR 16[rax]
	mov	DWORD PTR -24[rbp], eax
	jmp	.L43
.L42:
	.loc 1 193 20
	mov	rax, QWORD PTR token[rip]
	mov	eax, DWORD PTR 16[rax]
	.loc 1 193 12
	mov	edx, DWORD PTR -24[rbp]
	imul	eax, edx
	mov	DWORD PTR -24[rbp], eax
.L43:
	.loc 1 195 22
	mov	rax, QWORD PTR token[rip]
	.loc 1 195 15
	mov	eax, DWORD PTR 16[rax]
	mov	DWORD PTR -20[rbp], eax
	.loc 1 196 18
	mov	rax, QWORD PTR token[rip]
	mov	rax, QWORD PTR 8[rax]
	.loc 1 196 11
	mov	QWORD PTR token[rip], rax
.L41:
	.loc 1 199 14
	mov	esi, 48
	mov	edi, 1
	call	calloc@PLT
	mov	QWORD PTR -48[rbp], rax
	.loc 1 200 25
	mov	rax, QWORD PTR -48[rbp]
	mov	DWORD PTR [rax], 5
	.loc 1 201 31
	mov	rax, QWORD PTR -40[rbp]
	mov	rdx, QWORD PTR 16[rax]
	.loc 1 201 25
	mov	rax, QWORD PTR -48[rbp]
	mov	QWORD PTR 8[rax], rdx
	.loc 1 202 25
	mov	rax, QWORD PTR -48[rbp]
	mov	edx, DWORD PTR -20[rbp]
	mov	DWORD PTR 24[rax], edx
	.loc 1 203 27
	mov	rax, QWORD PTR -48[rbp]
	mov	rdi, rax
	call	type_size@PLT
	.loc 1 203 25
	mov	rdx, QWORD PTR -48[rbp]
	mov	DWORD PTR 16[rdx], eax
	.loc 1 204 27
	mov	rax, QWORD PTR -48[rbp]
	mov	rdi, rax
	call	type_align@PLT
	.loc 1 204 25
	mov	rdx, QWORD PTR -48[rbp]
	mov	DWORD PTR 20[rdx], eax
	.loc 1 205 15
	mov	rax, QWORD PTR -40[rbp]
	mov	rdx, QWORD PTR -48[rbp]
	mov	QWORD PTR 16[rax], rdx
	.loc 1 206 4
	lea	rdi, .LC11[rip]
	call	expect@PLT
.L40:
	.loc 1 186 9
	lea	rdi, .LC10[rip]
	call	consume@PLT
	.loc 1 186 8
	test	al, al
	jne	.L44
	.loc 1 208 19
	mov	rax, QWORD PTR -40[rbp]
	mov	rdx, QWORD PTR 16[rax]
	mov	eax, DWORD PTR -24[rbp]
	mov	rsi, rdx
	mov	edi, eax
	call	align_array_size@PLT
	.loc 1 208 17
	mov	rdx, QWORD PTR -40[rbp]
	mov	DWORD PTR 4[rdx], eax
.LBE8:
	jmp	.L45
.L39:
	.loc 1 210 20
	mov	rax, QWORD PTR -40[rbp]
	mov	rax, QWORD PTR 16[rax]
	mov	rdi, rax
	call	type_size@PLT
	.loc 1 210 18
	mov	rdx, QWORD PTR -40[rbp]
	mov	DWORD PTR 4[rdx], eax
.L45:
	.loc 1 214 10
	mov	rax, QWORD PTR -40[rbp]
	mov	QWORD PTR globals[rip], rax
	.loc 1 216 19
	mov	rax, QWORD PTR -40[rbp]
	mov	rdx, QWORD PTR 16[rax]
	.loc 1 216 13
	mov	rax, QWORD PTR -32[rbp]
	mov	QWORD PTR 40[rax], rdx
	.loc 1 217 19
	mov	rax, QWORD PTR -40[rbp]
	mov	rdx, QWORD PTR 8[rax]
	.loc 1 217 13
	mov	rax, QWORD PTR -32[rbp]
	mov	QWORD PTR 56[rax], rdx
	.loc 1 218 19
	mov	rax, QWORD PTR -40[rbp]
	mov	edx, DWORD PTR [rax]
	.loc 1 218 13
	mov	rax, QWORD PTR -32[rbp]
	mov	DWORD PTR 48[rax], edx
	.loc 1 220 9
	mov	rax, QWORD PTR -32[rbp]
	.loc 1 221 1
	add	rsp, 72
	pop	rbx
	pop	rbp
	.cfi_def_cfa 7, 8
	ret
	.cfi_endproc
.LFE3:
	.size	declare_global_variable, .-declare_global_variable
	.section	.rodata
	.align 8
.LC12:
	.string	"this variable has already existed."
	.text
	.globl	declare_local_variable
	.type	declare_local_variable, @function
declare_local_variable:
.LFB4:
	.loc 1 223 69
	.cfi_startproc
	push	rbp
	.cfi_def_cfa_offset 16
	.cfi_offset 6, -16
	mov	rbp, rsp
	.cfi_def_cfa_register 6
	sub	rsp, 80
	mov	QWORD PTR -56[rbp], rdi
	mov	QWORD PTR -64[rbp], rsi
	mov	DWORD PTR -68[rbp], edx
	.loc 1 224 6
	mov	DWORD PTR -12[rbp], 1
	.loc 1 225 15
	mov	edx, DWORD PTR -12[rbp]
	mov	rax, QWORD PTR -64[rbp]
	mov	esi, edx
	mov	rdi, rax
	call	find_lvar@PLT
	mov	QWORD PTR -24[rbp], rax
	.loc 1 226 4
	cmp	QWORD PTR -24[rbp], 0
	je	.L48
	.loc 1 226 25 discriminator 1
	mov	rax, QWORD PTR token[rip]
	.loc 1 226 11 discriminator 1
	mov	rax, QWORD PTR 24[rax]
	lea	rsi, .LC12[rip]
	mov	rdi, rax
	call	error_at@PLT
.L48:
	.loc 1 228 9
	mov	esi, 32
	mov	edi, 1
	call	calloc@PLT
	mov	QWORD PTR -24[rbp], rax
	.loc 1 229 13
	mov	rdx, QWORD PTR locals[rip]
	mov	rax, QWORD PTR -24[rbp]
	mov	QWORD PTR 24[rax], rdx
	.loc 1 230 18
	mov	rax, QWORD PTR -64[rbp]
	mov	rdx, QWORD PTR 24[rax]
	.loc 1 230 13
	mov	rax, QWORD PTR -24[rbp]
	mov	QWORD PTR 8[rax], rdx
	.loc 1 231 18
	mov	rax, QWORD PTR -64[rbp]
	mov	edx, DWORD PTR 32[rax]
	.loc 1 231 13
	mov	rax, QWORD PTR -24[rbp]
	mov	DWORD PTR [rax], edx
	.loc 1 232 19
	mov	rax, QWORD PTR -56[rbp]
	mov	rdx, QWORD PTR 40[rax]
	.loc 1 232 13
	mov	rax, QWORD PTR -24[rbp]
	mov	QWORD PTR 16[rax], rdx
	.loc 1 235 5
	lea	rdi, .LC10[rip]
	call	check@PLT
	.loc 1 235 4
	test	al, al
	je	.L49
.LBB9:
	.loc 1 238 7
	mov	DWORD PTR -28[rbp], 0
	.loc 1 239 7
	mov	DWORD PTR -8[rbp], -1
	.loc 1 240 14
	mov	rax, QWORD PTR -56[rbp]
	mov	DWORD PTR [rax], 24
	.loc 1 241 8
	jmp	.L50
.L54:
	.loc 1 242 14
	mov	DWORD PTR -4[rbp], -1
	.loc 1 243 8
	lea	rdi, .LC11[rip]
	call	check@PLT
	.loc 1 243 7
	xor	eax, 1
	.loc 1 243 6
	test	al, al
	je	.L51
	.loc 1 244 7
	cmp	DWORD PTR -8[rbp], -1
	jne	.L52
	.loc 1 245 19
	mov	rax, QWORD PTR token[rip]
	.loc 1 245 12
	mov	eax, DWORD PTR 16[rax]
	mov	DWORD PTR -8[rbp], eax
	jmp	.L53
.L52:
	.loc 1 247 20
	mov	rax, QWORD PTR token[rip]
	mov	eax, DWORD PTR 16[rax]
	.loc 1 247 12
	mov	edx, DWORD PTR -8[rbp]
	imul	eax, edx
	mov	DWORD PTR -8[rbp], eax
.L53:
	.loc 1 250 22
	mov	rax, QWORD PTR token[rip]
	.loc 1 250 15
	mov	eax, DWORD PTR 16[rax]
	mov	DWORD PTR -4[rbp], eax
	.loc 1 251 22
	mov	rax, QWORD PTR token[rip]
	mov	rax, QWORD PTR 8[rax]
	.loc 1 251 15
	mov	QWORD PTR token[rip], rax
.L51:
	.loc 1 254 14
	mov	esi, 48
	mov	edi, 1
	call	calloc@PLT
	mov	QWORD PTR -40[rbp], rax
	.loc 1 255 25
	mov	rax, QWORD PTR -40[rbp]
	mov	DWORD PTR [rax], 5
	.loc 1 256 31
	mov	rax, QWORD PTR -24[rbp]
	mov	rdx, QWORD PTR 16[rax]
	.loc 1 256 25
	mov	rax, QWORD PTR -40[rbp]
	mov	QWORD PTR 8[rax], rdx
	.loc 1 257 25
	mov	rax, QWORD PTR -40[rbp]
	mov	edx, DWORD PTR -4[rbp]
	mov	DWORD PTR 24[rax], edx
	.loc 1 258 27
	mov	rax, QWORD PTR -40[rbp]
	mov	rdi, rax
	call	type_size@PLT
	.loc 1 258 25
	mov	rdx, QWORD PTR -40[rbp]
	mov	DWORD PTR 16[rdx], eax
	.loc 1 259 27
	mov	rax, QWORD PTR -40[rbp]
	mov	rdi, rax
	call	type_align@PLT
	.loc 1 259 25
	mov	rdx, QWORD PTR -40[rbp]
	mov	DWORD PTR 20[rdx], eax
	.loc 1 260 15
	mov	rax, QWORD PTR -24[rbp]
	mov	rdx, QWORD PTR -40[rbp]
	mov	QWORD PTR 16[rax], rdx
	.loc 1 262 4
	lea	rdi, .LC11[rip]
	call	expect@PLT
.L50:
	.loc 1 241 9
	lea	rdi, .LC10[rip]
	call	consume@PLT
	.loc 1 241 8
	test	al, al
	jne	.L54
	.loc 1 265 11
	mov	rax, QWORD PTR -24[rbp]
	mov	rdx, QWORD PTR 16[rax]
	mov	eax, DWORD PTR -8[rbp]
	mov	rsi, rdx
	mov	edi, eax
	call	align_array_size@PLT
	mov	DWORD PTR -28[rbp], eax
	.loc 1 266 14
	mov	edx, DWORD PTR alloc_size[rip]
	mov	eax, DWORD PTR -28[rbp]
	add	eax, edx
	mov	DWORD PTR alloc_size[rip], eax
	.loc 1 267 28
	mov	rax, QWORD PTR locals[rip]
	.loc 1 267 47
	test	rax, rax
	je	.L55
	.loc 1 267 37 discriminator 1
	mov	rax, QWORD PTR locals[rip]
	.loc 1 267 47 discriminator 1
	mov	eax, DWORD PTR 4[rax]
	jmp	.L56
.L55:
	.loc 1 267 47 is_stmt 0 discriminator 2
	mov	eax, 0
.L56:
	.loc 1 267 52 is_stmt 1 discriminator 4
	mov	edx, DWORD PTR -28[rbp]
	add	edx, eax
	.loc 1 267 16 discriminator 4
	mov	rax, QWORD PTR -24[rbp]
	mov	DWORD PTR 4[rax], edx
.LBE9:
	jmp	.L57
.L49:
	.loc 1 269 10
	mov	rax, QWORD PTR -24[rbp]
	mov	rax, QWORD PTR 16[rax]
	.loc 1 269 16
	mov	eax, DWORD PTR [rax]
	.loc 1 269 5
	cmp	eax, 6
	jne	.L58
	.loc 1 270 29
	mov	rax, QWORD PTR locals[rip]
	.loc 1 270 67
	test	rax, rax
	je	.L59
	.loc 1 270 38 discriminator 1
	mov	rax, QWORD PTR locals[rip]
	mov	edx, DWORD PTR 4[rax]
	.loc 1 270 54 discriminator 1
	mov	rax, QWORD PTR -24[rbp]
	mov	rax, QWORD PTR 16[rax]
	.loc 1 270 60 discriminator 1
	mov	eax, DWORD PTR 16[rax]
	.loc 1 270 67 discriminator 1
	add	eax, edx
	jmp	.L60
.L59:
	.loc 1 270 73 discriminator 2
	mov	rax, QWORD PTR -24[rbp]
	mov	rax, QWORD PTR 16[rax]
	.loc 1 270 67 discriminator 2
	mov	eax, DWORD PTR 16[rax]
.L60:
	.loc 1 270 17 discriminator 4
	mov	rdx, QWORD PTR -24[rbp]
	mov	DWORD PTR 4[rdx], eax
	.loc 1 271 24 discriminator 4
	mov	rax, QWORD PTR -24[rbp]
	mov	rax, QWORD PTR 16[rax]
	.loc 1 271 30 discriminator 4
	mov	edx, DWORD PTR 16[rax]
	.loc 1 271 17 discriminator 4
	mov	eax, DWORD PTR alloc_size[rip]
	add	eax, edx
	mov	DWORD PTR alloc_size[rip], eax
	jmp	.L57
.L58:
	.loc 1 273 29
	mov	rax, QWORD PTR locals[rip]
	.loc 1 273 50
	test	rax, rax
	je	.L61
	.loc 1 273 38 discriminator 1
	mov	rax, QWORD PTR locals[rip]
	mov	eax, DWORD PTR 4[rax]
	.loc 1 273 50 discriminator 1
	lea	edx, 8[rax]
	jmp	.L62
.L61:
	.loc 1 273 50 is_stmt 0 discriminator 2
	mov	edx, 8
.L62:
	.loc 1 273 17 is_stmt 1 discriminator 4
	mov	rax, QWORD PTR -24[rbp]
	mov	DWORD PTR 4[rax], edx
	.loc 1 274 17 discriminator 4
	mov	eax, DWORD PTR alloc_size[rip]
	add	eax, 8
	mov	DWORD PTR alloc_size[rip], eax
.L57:
	.loc 1 278 19
	mov	rax, QWORD PTR -24[rbp]
	mov	rdx, QWORD PTR 16[rax]
	.loc 1 278 13
	mov	rax, QWORD PTR -56[rbp]
	mov	QWORD PTR 40[rax], rdx
	.loc 1 279 21
	mov	rax, QWORD PTR -24[rbp]
	mov	edx, DWORD PTR 4[rax]
	.loc 1 279 15
	mov	rax, QWORD PTR -56[rbp]
	mov	DWORD PTR 64[rax], edx
	.loc 1 281 9
	mov	rax, QWORD PTR -24[rbp]
	mov	QWORD PTR locals[rip], rax
	.loc 1 283 9
	mov	rax, QWORD PTR -56[rbp]
	.loc 1 284 1
	leave
	.cfi_def_cfa 7, 8
	ret
	.cfi_endproc
.LFE4:
	.size	declare_local_variable, .-declare_local_variable
	.section	.rodata
.LC13:
	.string	"not a type."
.LC14:
	.string	";"
.LC15:
	.string	"}"
	.text
	.globl	register_struc_member
	.type	register_struc_member, @function
register_struc_member:
.LFB5:
	.loc 1 286 46
	.cfi_startproc
	push	rbp
	.cfi_def_cfa_offset 16
	.cfi_offset 6, -16
	mov	rbp, rsp
	.cfi_def_cfa_register 6
	sub	rsp, 80
	mov	QWORD PTR -72[rbp], rdi
	.loc 1 288 6
	mov	DWORD PTR -28[rbp], 0
	.loc 1 289 10
	mov	QWORD PTR -40[rbp], 0
	.loc 1 290 10
	mov	QWORD PTR -16[rbp], 0
.L81:
.LBB10:
	.loc 1 293 13
	mov	rax, QWORD PTR token[rip]
	mov	eax, DWORD PTR [rax]
	.loc 1 293 5
	test	eax, eax
	je	.L65
	.loc 1 293 34 discriminator 1
	mov	rax, QWORD PTR token[rip]
	mov	edx, DWORD PTR -28[rbp]
	mov	esi, edx
	mov	rdi, rax
	call	find_defined_type@PLT
	.loc 1 293 6 discriminator 1
	test	rax, rax
	jne	.L65
	.loc 1 294 18
	mov	rax, QWORD PTR token[rip]
	.loc 1 294 4
	mov	rax, QWORD PTR 24[rax]
	lea	rsi, .LC13[rip]
	mov	rdi, rax
	call	error_at@PLT
.L65:
	.loc 1 297 14
	mov	esi, 40
	mov	edi, 1
	call	calloc@PLT
	mov	QWORD PTR -40[rbp], rax
	.loc 1 300 23
	call	parse_type
	.loc 1 300 21
	mov	rdx, QWORD PTR -40[rbp]
	mov	QWORD PTR 24[rdx], rax
	.loc 1 301 31
	mov	rax, QWORD PTR -40[rbp]
	mov	rax, QWORD PTR 24[rax]
	.loc 1 301 37
	mov	edx, DWORD PTR 16[rax]
	.loc 1 301 21
	mov	rax, QWORD PTR -40[rbp]
	mov	DWORD PTR 8[rax], edx
	.loc 1 304 22
	call	consume_ident@PLT
	mov	QWORD PTR -48[rbp], rax
	.loc 1 305 30
	mov	rax, QWORD PTR -48[rbp]
	mov	rdx, QWORD PTR 24[rax]
	.loc 1 305 20
	mov	rax, QWORD PTR -40[rbp]
	mov	QWORD PTR 16[rax], rdx
	.loc 1 306 30
	mov	rax, QWORD PTR -48[rbp]
	mov	edx, DWORD PTR 32[rax]
	.loc 1 306 20
	mov	rax, QWORD PTR -40[rbp]
	mov	DWORD PTR [rax], edx
	.loc 1 309 7
	mov	DWORD PTR -20[rbp], -1
	.loc 1 312 8
	jmp	.L66
.L69:
	.loc 1 313 6
	cmp	DWORD PTR -20[rbp], -1
	jne	.L67
	.loc 1 314 18
	mov	rax, QWORD PTR token[rip]
	.loc 1 314 11
	mov	eax, DWORD PTR 16[rax]
	mov	DWORD PTR -20[rbp], eax
	jmp	.L68
.L67:
	.loc 1 316 19
	mov	rax, QWORD PTR token[rip]
	mov	eax, DWORD PTR 16[rax]
	.loc 1 316 11
	mov	edx, DWORD PTR -20[rbp]
	imul	eax, edx
	mov	DWORD PTR -20[rbp], eax
.L68:
	.loc 1 318 21
	mov	rax, QWORD PTR token[rip]
	.loc 1 318 14
	mov	eax, DWORD PTR 16[rax]
	mov	DWORD PTR -56[rbp], eax
	.loc 1 319 17
	mov	rax, QWORD PTR token[rip]
	mov	rax, QWORD PTR 8[rax]
	.loc 1 319 10
	mov	QWORD PTR token[rip], rax
	.loc 1 321 14
	mov	esi, 48
	mov	edi, 1
	call	calloc@PLT
	mov	QWORD PTR -64[rbp], rax
	.loc 1 322 24
	mov	rax, QWORD PTR -64[rbp]
	mov	DWORD PTR [rax], 5
	.loc 1 323 34
	mov	rax, QWORD PTR -40[rbp]
	mov	rdx, QWORD PTR 24[rax]
	.loc 1 323 24
	mov	rax, QWORD PTR -64[rbp]
	mov	QWORD PTR 8[rax], rdx
	.loc 1 324 24
	mov	rax, QWORD PTR -64[rbp]
	mov	edx, DWORD PTR -56[rbp]
	mov	DWORD PTR 24[rax], edx
	.loc 1 325 21
	mov	rax, QWORD PTR -64[rbp]
	mov	rdi, rax
	call	type_size@PLT
	.loc 1 325 19
	mov	rdx, QWORD PTR -64[rbp]
	mov	DWORD PTR 16[rdx], eax
	.loc 1 326 21
	mov	rax, QWORD PTR -64[rbp]
	mov	rdi, rax
	call	type_align@PLT
	.loc 1 326 19
	mov	rdx, QWORD PTR -64[rbp]
	mov	DWORD PTR 20[rdx], eax
	.loc 1 327 19
	mov	rax, QWORD PTR -40[rbp]
	mov	rdx, QWORD PTR -64[rbp]
	mov	QWORD PTR 24[rax], rdx
	.loc 1 329 4
	lea	rdi, .LC11[rip]
	call	expect@PLT
.L66:
	.loc 1 312 9
	lea	rdi, .LC10[rip]
	call	consume@PLT
	.loc 1 312 8
	test	al, al
	jne	.L69
	.loc 1 333 7
	mov	DWORD PTR -24[rbp], 0
	.loc 1 334 14
	mov	rax, QWORD PTR -40[rbp]
	mov	rax, QWORD PTR 24[rax]
	.loc 1 334 20
	mov	eax, DWORD PTR [rax]
	.loc 1 334 5
	cmp	eax, 5
	jne	.L70
	.loc 1 335 17
	mov	DWORD PTR -4[rbp], 8
	jmp	.L71
.L70:
	.loc 1 336 21
	mov	rax, QWORD PTR -40[rbp]
	mov	rax, QWORD PTR 24[rax]
	.loc 1 336 27
	mov	eax, DWORD PTR [rax]
	.loc 1 336 12
	cmp	eax, 6
	jne	.L72
	.loc 1 337 17
	mov	rax, QWORD PTR -40[rbp]
	mov	eax, DWORD PTR 8[rax]
	mov	DWORD PTR -4[rbp], eax
	jmp	.L71
.L72:
	.loc 1 339 27
	mov	rax, QWORD PTR -40[rbp]
	mov	rax, QWORD PTR 24[rax]
	.loc 1 339 17
	mov	eax, DWORD PTR 16[rax]
	mov	DWORD PTR -4[rbp], eax
.L71:
	.loc 1 342 5
	cmp	QWORD PTR -16[rbp], 0
	je	.L73
.LBB11:
	.loc 1 343 81
	cmp	QWORD PTR -16[rbp], 0
	je	.L74
	.loc 1 343 47 discriminator 1
	mov	rax, QWORD PTR -16[rbp]
	mov	edx, DWORD PTR 4[rax]
	.loc 1 343 67 discriminator 1
	mov	rax, QWORD PTR -16[rbp]
	mov	rax, QWORD PTR 24[rax]
	.loc 1 343 73 discriminator 1
	mov	eax, DWORD PTR 16[rax]
	.loc 1 343 81 discriminator 1
	add	eax, edx
	jmp	.L75
.L74:
	.loc 1 343 81 is_stmt 0 discriminator 2
	mov	eax, 0
.L75:
	.loc 1 343 8 is_stmt 1 discriminator 4
	mov	DWORD PTR -52[rbp], eax
	.loc 1 344 44 discriminator 4
	mov	rax, QWORD PTR -40[rbp]
	mov	rax, QWORD PTR 24[rax]
	.loc 1 344 50 discriminator 4
	mov	ecx, DWORD PTR 20[rax]
	.loc 1 344 34 discriminator 4
	mov	eax, DWORD PTR -52[rbp]
	cdq
	idiv	ecx
	mov	eax, edx
	.loc 1 344 123 discriminator 4
	test	eax, eax
	je	.L76
	.loc 1 344 70 discriminator 1
	mov	rax, QWORD PTR -40[rbp]
	mov	rax, QWORD PTR 24[rax]
	.loc 1 344 76 discriminator 1
	mov	ecx, DWORD PTR 20[rax]
	.loc 1 344 107 discriminator 1
	mov	rax, QWORD PTR -40[rbp]
	mov	rax, QWORD PTR 24[rax]
	.loc 1 344 113 discriminator 1
	mov	esi, DWORD PTR 20[rax]
	.loc 1 344 97 discriminator 1
	mov	eax, DWORD PTR -52[rbp]
	cdq
	idiv	esi
	mov	eax, edx
	.loc 1 344 123 discriminator 1
	sub	ecx, eax
	mov	eax, ecx
	jmp	.L77
.L76:
	.loc 1 344 123 is_stmt 0 discriminator 2
	mov	eax, 0
.L77:
	.loc 1 344 21 is_stmt 1 discriminator 4
	mov	DWORD PTR -24[rbp], eax
	.loc 1 345 33 discriminator 4
	mov	edx, DWORD PTR -52[rbp]
	mov	eax, DWORD PTR -24[rbp]
	add	edx, eax
	.loc 1 345 21 discriminator 4
	mov	rax, QWORD PTR -40[rbp]
	mov	DWORD PTR 4[rax], edx
.LBE11:
	jmp	.L78
.L73:
	.loc 1 347 21
	mov	rax, QWORD PTR -40[rbp]
	mov	DWORD PTR 4[rax], 0
.L78:
	.loc 1 349 16
	mov	rax, QWORD PTR -72[rbp]
	mov	eax, DWORD PTR [rax]
	.loc 1 349 32
	mov	ecx, DWORD PTR -4[rbp]
	mov	edx, DWORD PTR -24[rbp]
	add	edx, ecx
	.loc 1 349 16
	add	edx, eax
	mov	rax, QWORD PTR -72[rbp]
	mov	DWORD PTR [rax], edx
	.loc 1 351 18
	mov	rax, QWORD PTR -40[rbp]
	mov	rdx, QWORD PTR -16[rbp]
	mov	QWORD PTR 32[rax], rdx
	.loc 1 352 18
	mov	rax, QWORD PTR -40[rbp]
	mov	QWORD PTR -16[rbp], rax
	.loc 1 354 3
	lea	rdi, .LC14[rip]
	call	expect@PLT
	.loc 1 355 6
	lea	rdi, .LC15[rip]
	call	consume@PLT
	.loc 1 355 5
	test	al, al
	jne	.L86
.LBE10:
	.loc 1 292 10
	jmp	.L81
.L86:
.LBB12:
	.loc 1 355 3
	nop
.LBE12:
	.loc 1 358 19
	mov	rax, QWORD PTR -72[rbp]
	mov	eax, DWORD PTR [rax]
	.loc 1 358 34
	and	eax, 7
	.loc 1 358 55
	test	eax, eax
	je	.L82
	.loc 1 358 37 discriminator 1
	mov	rax, QWORD PTR -72[rbp]
	mov	eax, DWORD PTR [rax]
	.loc 1 358 48 discriminator 1
	lea	edx, 7[rax]
	test	eax, eax
	cmovs	eax, edx
	sar	eax, 3
	.loc 1 358 52 discriminator 1
	add	eax, 1
	.loc 1 358 55 discriminator 1
	sal	eax, 3
	jmp	.L83
.L82:
	.loc 1 358 55 is_stmt 0 discriminator 2
	mov	rax, QWORD PTR -72[rbp]
	mov	eax, DWORD PTR [rax]
.L83:
	.loc 1 358 15 is_stmt 1 discriminator 4
	mov	rdx, QWORD PTR -72[rbp]
	mov	DWORD PTR [rdx], eax
	.loc 1 359 9 discriminator 4
	mov	rax, QWORD PTR -16[rbp]
	.loc 1 360 1 discriminator 4
	leave
	.cfi_def_cfa 7, 8
	ret
	.cfi_endproc
.LFE5:
	.size	register_struc_member, .-register_struc_member
	.globl	declare_struct
	.type	declare_struct, @function
declare_struct:
.LFB6:
	.loc 1 362 38
	.cfi_startproc
	push	rbp
	.cfi_def_cfa_offset 16
	.cfi_offset 6, -16
	mov	rbp, rsp
	.cfi_def_cfa_register 6
	sub	rsp, 32
	mov	QWORD PTR -24[rbp], rdi
	.loc 1 363 6
	mov	DWORD PTR -4[rbp], 0
	.loc 1 365 23
	lea	rax, -4[rbp]
	mov	rdi, rax
	call	register_struc_member
	.loc 1 365 21
	mov	rdx, QWORD PTR -24[rbp]
	mov	QWORD PTR 16[rdx], rax
	.loc 1 366 21
	mov	edx, DWORD PTR -4[rbp]
	mov	rax, QWORD PTR -24[rbp]
	mov	DWORD PTR 4[rax], edx
	.loc 1 367 21
	mov	rdx, QWORD PTR structs[rip]
	mov	rax, QWORD PTR -24[rbp]
	mov	QWORD PTR 24[rax], rdx
	.loc 1 368 10
	mov	rax, QWORD PTR -24[rbp]
	mov	QWORD PTR structs[rip], rax
	.loc 1 369 1
	nop
	leave
	.cfi_def_cfa 7, 8
	ret
	.cfi_endproc
.LFE6:
	.size	declare_struct, .-declare_struct
	.section	.rodata
.LC16:
	.string	"expected \342\200\230,\342\200\231 or \342\200\230}\342\200\231"
.LC17:
	.string	"="
	.align 8
.LC18:
	.string	"enumerator value is not an integer constant"
.LC19:
	.string	","
	.text
	.globl	register_enum_member
	.type	register_enum_member, @function
register_enum_member:
.LFB7:
	.loc 1 371 35
	.cfi_startproc
	push	rbp
	.cfi_def_cfa_offset 16
	.cfi_offset 6, -16
	mov	rbp, rsp
	.cfi_def_cfa_register 6
	sub	rsp, 32
	.loc 1 372 6
	mov	DWORD PTR -4[rbp], 0
	.loc 1 373 10
	mov	QWORD PTR -24[rbp], 0
	.loc 1 374 10
	mov	QWORD PTR -16[rbp], 0
.L95:
.LBB13:
	.loc 1 377 14
	mov	esi, 40
	mov	edi, 1
	call	calloc@PLT
	mov	QWORD PTR -24[rbp], rax
	.loc 1 379 11
	mov	rax, QWORD PTR token[rip]
	mov	eax, DWORD PTR [rax]
	.loc 1 379 5
	cmp	eax, 2
	je	.L89
	.loc 1 379 45 discriminator 1
	mov	rax, QWORD PTR token[rip]
	.loc 1 379 31 discriminator 1
	mov	rax, QWORD PTR 24[rax]
	lea	rsi, .LC16[rip]
	mov	rdi, rax
	call	error_at@PLT
.L89:
	.loc 1 381 22
	call	consume_ident@PLT
	mov	QWORD PTR -32[rbp], rax
	.loc 1 382 30
	mov	rax, QWORD PTR -32[rbp]
	mov	rdx, QWORD PTR 24[rax]
	.loc 1 382 20
	mov	rax, QWORD PTR -24[rbp]
	mov	QWORD PTR 16[rax], rdx
	.loc 1 383 30
	mov	rax, QWORD PTR -32[rbp]
	mov	edx, DWORD PTR 32[rax]
	.loc 1 383 20
	mov	rax, QWORD PTR -24[rbp]
	mov	DWORD PTR [rax], edx
	.loc 1 385 6
	lea	rdi, .LC17[rip]
	call	consume@PLT
	.loc 1 385 5
	test	al, al
	je	.L90
	.loc 1 386 12
	mov	rax, QWORD PTR token[rip]
	mov	eax, DWORD PTR [rax]
	.loc 1 386 6
	cmp	eax, 3
	je	.L91
	.loc 1 387 19
	mov	rax, QWORD PTR token[rip]
	.loc 1 387 5
	mov	rax, QWORD PTR 24[rax]
	lea	rsi, .LC18[rip]
	mov	rdi, rax
	call	error_at@PLT
.L91:
	.loc 1 390 28
	mov	rax, QWORD PTR token[rip]
	.loc 1 390 21
	mov	eax, DWORD PTR 16[rax]
	mov	DWORD PTR -4[rbp], eax
	.loc 1 391 21
	mov	rax, QWORD PTR -24[rbp]
	mov	edx, DWORD PTR -4[rbp]
	mov	DWORD PTR 4[rax], edx
	.loc 1 392 28
	mov	rax, QWORD PTR token[rip]
	mov	rax, QWORD PTR 8[rax]
	.loc 1 392 21
	mov	QWORD PTR token[rip], rax
	jmp	.L92
.L90:
	.loc 1 394 21
	mov	rax, QWORD PTR -24[rbp]
	mov	edx, DWORD PTR -4[rbp]
	mov	DWORD PTR 4[rax], edx
	.loc 1 395 11
	add	DWORD PTR -4[rbp], 1
.L92:
	.loc 1 398 20
	mov	rax, QWORD PTR -24[rbp]
	mov	rdx, QWORD PTR -16[rbp]
	mov	QWORD PTR 32[rax], rdx
	.loc 1 399 20
	mov	rax, QWORD PTR -24[rbp]
	mov	QWORD PTR -16[rbp], rax
	.loc 1 401 6
	lea	rdi, .LC19[rip]
	call	consume@PLT
	.loc 1 402 6
	lea	rdi, .LC15[rip]
	call	consume@PLT
	.loc 1 402 5
	test	al, al
	jne	.L98
.LBE13:
	.loc 1 376 10
	jmp	.L95
.L98:
.LBB14:
	.loc 1 402 3
	nop
.LBE14:
	.loc 1 405 9
	mov	rax, QWORD PTR -16[rbp]
	.loc 1 406 1
	leave
	.cfi_def_cfa 7, 8
	ret
	.cfi_endproc
.LFE7:
	.size	register_enum_member, .-register_enum_member
	.globl	declare_enum
	.type	declare_enum, @function
declare_enum:
.LFB8:
	.loc 1 408 34
	.cfi_startproc
	push	rbp
	.cfi_def_cfa_offset 16
	.cfi_offset 6, -16
	mov	rbp, rsp
	.cfi_def_cfa_register 6
	sub	rsp, 16
	mov	QWORD PTR -8[rbp], rdi
	.loc 1 409 21
	call	register_enum_member
	.loc 1 409 19
	mov	rdx, QWORD PTR -8[rbp]
	mov	QWORD PTR 16[rdx], rax
	.loc 1 410 19
	mov	rdx, QWORD PTR enumerations[rip]
	mov	rax, QWORD PTR -8[rbp]
	mov	QWORD PTR 24[rax], rdx
	.loc 1 411 19
	mov	rax, QWORD PTR -8[rbp]
	mov	QWORD PTR enumerations[rip], rax
	.loc 1 412 1
	nop
	leave
	.cfi_def_cfa 7, 8
	ret
	.cfi_endproc
.LFE8:
	.size	declare_enum, .-declare_enum
.Letext0:
	.file 2 "/usr/lib/gcc/x86_64-linux-gnu/9/include/stddef.h"
	.file 3 "/usr/include/x86_64-linux-gnu/bits/types.h"
	.file 4 "/usr/include/x86_64-linux-gnu/bits/types/struct_FILE.h"
	.file 5 "/usr/include/x86_64-linux-gnu/bits/types/FILE.h"
	.file 6 "/usr/include/stdio.h"
	.file 7 "../include/cc_sakura.h"
	.section	.note.GNU-stack,"",@progbits
