	.file	"main.c"
	.intel_syntax noprefix
	.text
.Ltext0:
	.comm	llid,4,4
	.comm	label_num,4,4
	.comm	label_loop_end,4,4
	.comm	user_input,8,8
	.comm	filename,100,32
	.comm	func_list,2400,32
	.comm	labels_head,8,8
	.comm	labels_tail,8,8
	.section	.rodata
.LC0:
	.string	"r"
.LC1:
	.string	"File open error.\n"
.LC2:
	.string	"%s: fseek:%s"
	.text
	.globl	read_file
	.type	read_file, @function
read_file:
.LFB0:
	.file 1 "../src/main.c"
	.loc 1 12 28
	.cfi_startproc
	push	rbp
	.cfi_def_cfa_offset 16
	.cfi_offset 6, -16
	mov	rbp, rsp
	.cfi_def_cfa_register 6
	sub	rsp, 48
	mov	QWORD PTR -40[rbp], rdi
	.loc 1 16 2
	mov	rax, QWORD PTR -40[rbp]
	mov	rsi, rax
	lea	rdi, filename[rip]
	call	strcpy@PLT
	.loc 1 17 12
	mov	rax, QWORD PTR -40[rbp]
	lea	rsi, .LC0[rip]
	mov	rdi, rax
	call	fopen@PLT
	mov	QWORD PTR -16[rbp], rax
	.loc 1 17 5
	cmp	QWORD PTR -16[rbp], 0
	jne	.L2
	.loc 1 18 3
	mov	rax, QWORD PTR stderr[rip]
	mov	rcx, rax
	mov	edx, 17
	mov	esi, 1
	lea	rdi, .LC1[rip]
	call	fwrite@PLT
	.loc 1 19 3
	mov	edi, 1
	call	exit@PLT
.L2:
	.loc 1 23 5
	mov	rax, QWORD PTR -16[rbp]
	mov	edx, 2
	mov	esi, 0
	mov	rdi, rax
	call	fseek@PLT
	.loc 1 23 4
	cmp	eax, -1
	jne	.L3
	.loc 1 24 40
	call	__errno_location@PLT
	.loc 1 24 3
	mov	eax, DWORD PTR [rax]
	mov	edi, eax
	call	strerror@PLT
	mov	rdx, rax
	mov	rax, QWORD PTR -40[rbp]
	mov	rsi, rax
	lea	rdi, .LC2[rip]
	mov	eax, 0
	call	error@PLT
.L3:
	.loc 1 27 16
	mov	rax, QWORD PTR -16[rbp]
	mov	rdi, rax
	call	ftell@PLT
	.loc 1 27 9
	mov	QWORD PTR -8[rbp], rax
	.loc 1 29 5
	mov	rax, QWORD PTR -16[rbp]
	mov	edx, 0
	mov	esi, 0
	mov	rdi, rax
	call	fseek@PLT
	.loc 1 29 4
	cmp	eax, -1
	jne	.L4
	.loc 1 30 40
	call	__errno_location@PLT
	.loc 1 30 3
	mov	eax, DWORD PTR [rax]
	mov	edi, eax
	call	strerror@PLT
	mov	rdx, rax
	mov	rax, QWORD PTR -40[rbp]
	mov	rsi, rax
	lea	rdi, .LC2[rip]
	mov	eax, 0
	call	error@PLT
.L4:
	.loc 1 33 8
	mov	rax, QWORD PTR -8[rbp]
	add	rax, 2
	mov	rsi, rax
	mov	edi, 1
	call	calloc@PLT
	mov	QWORD PTR -24[rbp], rax
	.loc 1 34 2
	mov	rdx, QWORD PTR -16[rbp]
	mov	rsi, QWORD PTR -8[rbp]
	mov	rax, QWORD PTR -24[rbp]
	mov	rcx, rdx
	mov	edx, 1
	mov	rdi, rax
	call	fread@PLT
	.loc 1 36 4
	cmp	QWORD PTR -8[rbp], 0
	je	.L5
	.loc 1 36 21 discriminator 1
	mov	rax, QWORD PTR -8[rbp]
	lea	rdx, -1[rax]
	mov	rax, QWORD PTR -24[rbp]
	add	rax, rdx
	movzx	eax, BYTE PTR [rax]
	.loc 1 36 15 discriminator 1
	cmp	al, 10
	je	.L6
.L5:
	.loc 1 37 11
	mov	rax, QWORD PTR -8[rbp]
	lea	rdx, 1[rax]
	mov	QWORD PTR -8[rbp], rdx
	.loc 1 37 6
	mov	rdx, QWORD PTR -24[rbp]
	add	rax, rdx
	.loc 1 37 15
	mov	BYTE PTR [rax], 10
.L6:
	.loc 1 40 5
	mov	rdx, QWORD PTR -24[rbp]
	mov	rax, QWORD PTR -8[rbp]
	add	rax, rdx
	.loc 1 40 12
	mov	BYTE PTR [rax], 0
	.loc 1 41 2
	mov	rax, QWORD PTR -16[rbp]
	mov	rdi, rax
	call	fclose@PLT
	.loc 1 43 9
	mov	rax, QWORD PTR -24[rbp]
	.loc 1 44 1
	leave
	.cfi_def_cfa 7, 8
	ret
	.cfi_endproc
.LFE0:
	.size	read_file, .-read_file
	.section	.rodata
.LC3:
	.string	"-cl"
.LC4:
	.string	"Incorrect option\n"
	.align 8
.LC5:
	.string	"Incorrect number of arguments\n"
	.text
	.globl	get_code
	.type	get_code, @function
get_code:
.LFB1:
	.loc 1 46 37
	.cfi_startproc
	push	rbp
	.cfi_def_cfa_offset 16
	.cfi_offset 6, -16
	mov	rbp, rsp
	.cfi_def_cfa_register 6
	sub	rsp, 16
	mov	DWORD PTR -4[rbp], edi
	mov	QWORD PTR -16[rbp], rsi
	.loc 1 47 4
	cmp	DWORD PTR -4[rbp], 2
	jne	.L9
	.loc 1 48 30
	mov	rax, QWORD PTR -16[rbp]
	add	rax, 8
	.loc 1 48 16
	mov	rax, QWORD PTR [rax]
	mov	rdi, rax
	call	read_file
	.loc 1 48 14
	mov	QWORD PTR user_input[rip], rax
	.loc 1 61 1
	jmp	.L8
.L9:
	.loc 1 49 10
	cmp	DWORD PTR -4[rbp], 3
	jne	.L11
	.loc 1 50 18
	mov	rax, QWORD PTR -16[rbp]
	add	rax, 8
	.loc 1 50 7
	mov	rax, QWORD PTR [rax]
	lea	rsi, .LC3[rip]
	mov	rdi, rax
	call	strcmp@PLT
	.loc 1 50 5
	test	eax, eax
	jne	.L12
	.loc 1 51 15
	mov	rax, QWORD PTR -16[rbp]
	mov	rax, QWORD PTR 16[rax]
	mov	QWORD PTR user_input[rip], rax
	.loc 1 52 4
	movabs	rax, 2334111871611531107
	mov	QWORD PTR filename[rip], rax
	mov	DWORD PTR filename[rip+8], 1701734764
	mov	BYTE PTR filename[rip+12], 0
	.loc 1 61 1
	jmp	.L8
.L12:
	.loc 1 54 4
	mov	rax, QWORD PTR stderr[rip]
	mov	rcx, rax
	mov	edx, 17
	mov	esi, 1
	lea	rdi, .LC4[rip]
	call	fwrite@PLT
	.loc 1 55 4
	mov	edi, 1
	call	exit@PLT
.L11:
	.loc 1 58 3
	mov	rax, QWORD PTR stderr[rip]
	mov	rcx, rax
	mov	edx, 30
	mov	esi, 1
	lea	rdi, .LC5[rip]
	call	fwrite@PLT
	.loc 1 59 3
	mov	edi, 1
	call	exit@PLT
.L8:
	.loc 1 61 1
	leave
	.cfi_def_cfa 7, 8
	ret
	.cfi_endproc
.LFE1:
	.size	get_code, .-get_code
	.section	.rodata
.LC6:
	.string	".intel_syntax noprefix"
.LC7:
	.string	".globl main"
.LC8:
	.string	".comm\t%.*s, %d, %d\n"
.LC9:
	.string	".section .tbss,\"awT\",@nobits"
.LC10:
	.string	"%.*s:\n\t.zero %d\n"
.LC11:
	.string	".LC%d:\n"
.LC12:
	.string	"\t.string \"%.*s\"\n"
.LC13:
	.string	"%s:\n"
.LC14:
	.string	"\tpush rbp"
.LC15:
	.string	"\tmov rbp,rsp"
.LC16:
	.string	"\tsub rsp,%d\n"
.LC17:
	.string	"main"
.LC18:
	.string	"\tmov rsp,rbp"
.LC19:
	.string	"\tpop rbp"
.LC20:
	.string	"\tret\n"
	.text
	.globl	main
	.type	main, @function
main:
.LFB2:
	.loc 1 63 32
	.cfi_startproc
	push	rbp
	.cfi_def_cfa_offset 16
	.cfi_offset 6, -16
	mov	rbp, rsp
	.cfi_def_cfa_register 6
	sub	rsp, 64
	mov	DWORD PTR -52[rbp], edi
	mov	QWORD PTR -64[rbp], rsi
	.loc 1 66 6
	mov	eax, 0
	call	three@PLT
	mov	DWORD PTR -4[rbp], eax
	.loc 1 69 2
	mov	rdx, QWORD PTR -64[rbp]
	mov	eax, DWORD PTR -52[rbp]
	mov	rsi, rdx
	mov	edi, eax
	call	get_code
	.loc 1 72 10
	mov	rax, QWORD PTR user_input[rip]
	mov	rdi, rax
	call	tokenize@PLT
	.loc 1 72 8
	mov	QWORD PTR token[rip], rax
	.loc 1 74 2
	call	program@PLT
	.loc 1 82 2
	lea	rdi, .LC6[rip]
	call	puts@PLT
	.loc 1 83 2
	lea	rdi, .LC7[rip]
	call	puts@PLT
	.loc 1 86 8
	mov	rax, QWORD PTR globals[rip]
	mov	QWORD PTR -40[rbp], rax
.LBB2:
	.loc 1 87 13
	mov	rax, QWORD PTR -40[rbp]
	mov	QWORD PTR -16[rbp], rax
	.loc 1 87 2
	jmp	.L14
.L17:
	.loc 1 88 9
	mov	rax, QWORD PTR -16[rbp]
	mov	rax, QWORD PTR 16[rax]
	.loc 1 88 15
	mov	eax, DWORD PTR 28[rax]
	.loc 1 88 5
	test	eax, eax
	jne	.L15
	.loc 1 89 10
	mov	rax, QWORD PTR -16[rbp]
	mov	rax, QWORD PTR 16[rax]
	.loc 1 89 16
	mov	eax, DWORD PTR 32[rax]
	.loc 1 89 6
	test	eax, eax
	jne	.L16
	.loc 1 90 74
	mov	rax, QWORD PTR -16[rbp]
	mov	rax, QWORD PTR 16[rax]
	.loc 1 90 5
	mov	esi, DWORD PTR 20[rax]
	mov	rax, QWORD PTR -16[rbp]
	mov	ecx, DWORD PTR 4[rax]
	mov	rax, QWORD PTR -16[rbp]
	mov	rdx, QWORD PTR 8[rax]
	mov	rax, QWORD PTR -16[rbp]
	mov	eax, DWORD PTR [rax]
	mov	r8d, esi
	mov	esi, eax
	lea	rdi, .LC8[rip]
	mov	eax, 0
	call	printf@PLT
	jmp	.L15
.L16:
	.loc 1 92 5
	lea	rdi, .LC9[rip]
	call	puts@PLT
	.loc 1 93 5
	mov	rax, QWORD PTR -16[rbp]
	mov	ecx, DWORD PTR 4[rax]
	mov	rax, QWORD PTR -16[rbp]
	mov	rdx, QWORD PTR 8[rax]
	mov	rax, QWORD PTR -16[rbp]
	mov	eax, DWORD PTR [rax]
	mov	esi, eax
	lea	rdi, .LC10[rip]
	mov	eax, 0
	call	printf@PLT
.L15:
	.loc 1 87 33 discriminator 2
	mov	rax, QWORD PTR -16[rbp]
	mov	rax, QWORD PTR 24[rax]
	mov	QWORD PTR -16[rbp], rax
.L14:
	.loc 1 87 2 discriminator 1
	cmp	QWORD PTR -16[rbp], 0
	jne	.L17
.LBE2:
.LBB3:
	.loc 1 99 12
	mov	rax, QWORD PTR strings[rip]
	mov	QWORD PTR -24[rbp], rax
	.loc 1 99 2
	jmp	.L18
.L19:
	.loc 1 100 3 discriminator 3
	mov	rax, QWORD PTR -24[rbp]
	mov	eax, DWORD PTR 4[rax]
	mov	esi, eax
	lea	rdi, .LC11[rip]
	mov	eax, 0
	call	printf@PLT
	.loc 1 101 3 discriminator 3
	mov	rax, QWORD PTR -24[rbp]
	mov	rdx, QWORD PTR 8[rax]
	mov	rax, QWORD PTR -24[rbp]
	mov	eax, DWORD PTR [rax]
	mov	esi, eax
	lea	rdi, .LC12[rip]
	mov	eax, 0
	call	printf@PLT
	.loc 1 99 34 discriminator 3
	mov	rax, QWORD PTR -24[rbp]
	mov	rax, QWORD PTR 16[rax]
	mov	QWORD PTR -24[rbp], rax
.L18:
	.loc 1 99 2 discriminator 1
	cmp	QWORD PTR -24[rbp], 0
	jne	.L19
.LBE3:
	.loc 1 104 17
	mov	DWORD PTR llid[rip], 0
	.loc 1 105 17
	mov	DWORD PTR label_num[rip], 0
	.loc 1 106 17
	mov	DWORD PTR label_loop_end[rip], 0
	.loc 1 107 17
	mov	QWORD PTR labels_head[rip], 0
	.loc 1 108 17
	mov	QWORD PTR labels_tail[rip], 0
	.loc 1 111 8
	mov	DWORD PTR -4[rbp], 0
	.loc 1 111 2
	jmp	.L20
.L28:
	.loc 1 112 28
	mov	eax, DWORD PTR -4[rbp]
	cdqe
	lea	rdx, 0[0+rax*8]
	lea	rax, func_list[rip]
	mov	rax, QWORD PTR [rdx+rax]
	.loc 1 112 3
	mov	rax, QWORD PTR 8[rax]
	mov	rsi, rax
	lea	rdi, .LC13[rip]
	mov	eax, 0
	call	printf@PLT
	.loc 1 113 3
	lea	rdi, .LC14[rip]
	call	puts@PLT
	.loc 1 114 3
	lea	rdi, .LC15[rip]
	call	puts@PLT
	.loc 1 115 36
	mov	eax, DWORD PTR -4[rbp]
	cdqe
	lea	rdx, 0[0+rax*8]
	lea	rax, func_list[rip]
	mov	rax, QWORD PTR [rdx+rax]
	.loc 1 115 3
	mov	eax, DWORD PTR [rax]
	mov	esi, eax
	lea	rdi, .LC16[rip]
	mov	eax, 0
	call	printf@PLT
	.loc 1 117 15
	mov	eax, DWORD PTR -4[rbp]
	cdqe
	lea	rdx, 0[0+rax*8]
	lea	rax, func_list[rip]
	mov	rax, QWORD PTR [rdx+rax]
	.loc 1 117 18
	mov	rax, QWORD PTR 24[rax]
	.loc 1 117 5
	test	rax, rax
	je	.L21
	.loc 1 119 17
	mov	eax, DWORD PTR -4[rbp]
	cdqe
	lea	rdx, 0[0+rax*8]
	lea	rax, func_list[rip]
	mov	rax, QWORD PTR [rdx+rax]
	.loc 1 119 4
	mov	rax, QWORD PTR 24[rax]
	mov	rdi, rax
	call	gen@PLT
.L21:
	.loc 1 123 23
	mov	eax, DWORD PTR -4[rbp]
	cdqe
	lea	rdx, 0[0+rax*8]
	lea	rax, func_list[rip]
	mov	rax, QWORD PTR [rdx+rax]
	.loc 1 123 26
	mov	rax, QWORD PTR 8[rax]
	.loc 1 123 6
	mov	edx, 4
	lea	rsi, .LC17[rip]
	mov	rdi, rax
	call	strncmp@PLT
	.loc 1 123 5
	test	eax, eax
	jne	.L22
.LBB4:
	.loc 1 124 10
	mov	rax, QWORD PTR globals[rip]
	mov	QWORD PTR -48[rbp], rax
.LBB5:
	.loc 1 125 15
	mov	rax, QWORD PTR -48[rbp]
	mov	QWORD PTR -32[rbp], rax
	.loc 1 125 4
	jmp	.L23
.L25:
	.loc 1 126 11
	mov	rax, QWORD PTR -32[rbp]
	mov	rax, QWORD PTR 32[rax]
	.loc 1 126 7
	test	rax, rax
	je	.L24
	.loc 1 126 19 discriminator 1
	mov	rax, QWORD PTR -32[rbp]
	mov	rax, QWORD PTR 32[rax]
	mov	rdi, rax
	call	expand_next@PLT
.L24:
	.loc 1 125 35 discriminator 2
	mov	rax, QWORD PTR -32[rbp]
	mov	rax, QWORD PTR 24[rax]
	mov	QWORD PTR -32[rbp], rax
.L23:
	.loc 1 125 4 discriminator 1
	cmp	QWORD PTR -32[rbp], 0
	jne	.L25
.L22:
.LBE5:
.LBE4:
	.loc 1 130 9
	mov	DWORD PTR -8[rbp], 0
	.loc 1 130 3
	jmp	.L26
.L27:
	.loc 1 132 17 discriminator 3
	mov	eax, DWORD PTR -4[rbp]
	cdqe
	lea	rdx, 0[0+rax*8]
	lea	rax, func_list[rip]
	mov	rax, QWORD PTR [rdx+rax]
	.loc 1 132 4 discriminator 3
	mov	edx, DWORD PTR -8[rbp]
	movsx	rdx, edx
	add	rdx, 4
	mov	rax, QWORD PTR [rax+rdx*8]
	mov	rdi, rax
	call	gen@PLT
	.loc 1 130 44 discriminator 3
	add	DWORD PTR -8[rbp], 1
.L26:
	.loc 1 130 22 discriminator 1
	mov	eax, DWORD PTR -4[rbp]
	cdqe
	lea	rdx, 0[0+rax*8]
	lea	rax, func_list[rip]
	mov	rax, QWORD PTR [rdx+rax]
	.loc 1 130 31 discriminator 1
	mov	edx, DWORD PTR -8[rbp]
	movsx	rdx, edx
	add	rdx, 4
	mov	rax, QWORD PTR [rax+rdx*8]
	.loc 1 130 3 discriminator 1
	test	rax, rax
	jne	.L27
	.loc 1 137 3 discriminator 2
	lea	rdi, .LC18[rip]
	call	puts@PLT
	.loc 1 138 3 discriminator 2
	lea	rdi, .LC19[rip]
	call	puts@PLT
	.loc 1 139 3 discriminator 2
	lea	rdi, .LC20[rip]
	call	puts@PLT
	.loc 1 111 26 discriminator 2
	add	DWORD PTR -4[rbp], 1
.L20:
	.loc 1 111 21 discriminator 1
	mov	eax, DWORD PTR -4[rbp]
	cdqe
	lea	rdx, 0[0+rax*8]
	lea	rax, func_list[rip]
	mov	rax, QWORD PTR [rdx+rax]
	.loc 1 111 2 discriminator 1
	test	rax, rax
	jne	.L28
	.loc 1 142 9
	mov	eax, 0
	.loc 1 143 1
	leave
	.cfi_def_cfa 7, 8
	ret
	.cfi_endproc
.LFE2:
	.size	main, .-main
.Letext0:
	.file 2 "/usr/lib/gcc/x86_64-linux-gnu/9/include/stddef.h"
	.file 3 "/usr/include/x86_64-linux-gnu/bits/types.h"
	.file 4 "/usr/include/x86_64-linux-gnu/bits/types/struct_FILE.h"
	.file 5 "/usr/include/x86_64-linux-gnu/bits/types/FILE.h"
	.file 6 "/usr/include/stdio.h"
	.file 7 "../include/cc_sakura.h"
	.section	.note.GNU-stack,"",@progbits
