	.file	"parse_part.c"
	.intel_syntax noprefix
	.text
.Ltext0:
	.section	.rodata
.LC0:
	.string	"__NULL"
	.text
	.globl	compiler_directive
	.type	compiler_directive, @function
compiler_directive:
.LFB0:
	.file 1 "../src/parse_part.c"
	.loc 1 8 27
	.cfi_startproc
	push	rbp
	.cfi_def_cfa_offset 16
	.cfi_offset 6, -16
	mov	rbp, rsp
	.cfi_def_cfa_register 6
	push	rbx
	sub	rsp, 24
	.cfi_offset 3, -24
	.loc 1 11 5
	mov	esi, 21
	lea	rdi, .LC0[rip]
	call	consume_reserved_word@PLT
	.loc 1 11 4
	test	al, al
	je	.L2
	.loc 1 12 10
	mov	edi, 0
	call	new_node_num@PLT
	mov	QWORD PTR -24[rbp], rax
	.loc 1 13 7
	mov	rax, QWORD PTR -24[rbp]
	mov	rax, QWORD PTR 40[rax]
	.loc 1 13 21
	mov	DWORD PTR [rax], 4
	.loc 1 14 7
	mov	rax, QWORD PTR -24[rbp]
	mov	rax, QWORD PTR 40[rax]
	.loc 1 14 21
	mov	DWORD PTR 16[rax], 8
	.loc 1 15 7
	mov	rax, QWORD PTR -24[rbp]
	mov	rax, QWORD PTR 40[rax]
	.loc 1 15 21
	mov	DWORD PTR 20[rax], 8
	.loc 1 17 7
	mov	rax, QWORD PTR -24[rbp]
	mov	rbx, QWORD PTR 40[rax]
	.loc 1 17 31
	mov	esi, 48
	mov	edi, 1
	call	calloc@PLT
	.loc 1 17 29
	mov	QWORD PTR 8[rbx], rax
	.loc 1 18 7
	mov	rax, QWORD PTR -24[rbp]
	mov	rax, QWORD PTR 40[rax]
	.loc 1 18 13
	mov	rax, QWORD PTR 8[rax]
	.loc 1 18 29
	mov	DWORD PTR [rax], 0
	.loc 1 19 7
	mov	rax, QWORD PTR -24[rbp]
	mov	rax, QWORD PTR 40[rax]
	.loc 1 19 13
	mov	rax, QWORD PTR 8[rax]
	.loc 1 19 29
	mov	DWORD PTR 16[rax], 1
	.loc 1 20 7
	mov	rax, QWORD PTR -24[rbp]
	mov	rax, QWORD PTR 40[rax]
	.loc 1 20 13
	mov	rax, QWORD PTR 8[rax]
	.loc 1 20 29
	mov	DWORD PTR 20[rax], 1
.L2:
	.loc 1 23 9
	mov	rax, QWORD PTR -24[rbp]
	.loc 1 24 1
	add	rsp, 24
	pop	rbx
	pop	rbp
	.cfi_def_cfa 7, 8
	ret
	.cfi_endproc
.LFE0:
	.size	compiler_directive, .-compiler_directive
	.globl	compound_assign
	.type	compound_assign, @function
compound_assign:
.LFB1:
	.loc 1 26 59
	.cfi_startproc
	push	rbp
	.cfi_def_cfa_offset 16
	.cfi_offset 6, -16
	mov	rbp, rsp
	.cfi_def_cfa_register 6
	sub	rsp, 48
	mov	DWORD PTR -20[rbp], edi
	mov	QWORD PTR -32[rbp], rsi
	mov	QWORD PTR -40[rbp], rdx
	.loc 1 27 15
	mov	rdx, QWORD PTR -40[rbp]
	mov	rcx, QWORD PTR -32[rbp]
	mov	eax, DWORD PTR -20[rbp]
	mov	rsi, rcx
	mov	edi, eax
	call	new_node@PLT
	mov	QWORD PTR -8[rbp], rax
	.loc 1 28 15
	mov	rdx, QWORD PTR -8[rbp]
	mov	rax, QWORD PTR -32[rbp]
	mov	rsi, rax
	mov	edi, 14
	call	new_node@PLT
	mov	QWORD PTR -16[rbp], rax
	.loc 1 29 9
	mov	rax, QWORD PTR -16[rbp]
	.loc 1 30 1
	leave
	.cfi_def_cfa 7, 8
	ret
	.cfi_endproc
.LFE1:
	.size	compound_assign, .-compound_assign
	.globl	dot_arrow
	.type	dot_arrow, @function
dot_arrow:
.LFB2:
	.loc 1 32 43
	.cfi_startproc
	push	rbp
	.cfi_def_cfa_offset 16
	.cfi_offset 6, -16
	mov	rbp, rsp
	.cfi_def_cfa_register 6
	sub	rsp, 64
	mov	DWORD PTR -52[rbp], edi
	mov	QWORD PTR -64[rbp], rsi
	.loc 1 36 6
	mov	DWORD PTR -20[rbp], 0
	.loc 1 38 14
	mov	rcx, QWORD PTR -64[rbp]
	mov	eax, DWORD PTR -52[rbp]
	mov	edx, 0
	mov	rsi, rcx
	mov	edi, eax
	call	new_node@PLT
	mov	QWORD PTR -32[rbp], rax
	.loc 1 39 22
	call	consume_ident@PLT
	mov	QWORD PTR -40[rbp], rax
	.loc 1 43 9
	mov	rax, QWORD PTR -64[rbp]
	mov	eax, DWORD PTR [rax]
	.loc 1 43 4
	cmp	eax, 20
	jne	.L7
	.loc 1 44 20
	mov	rax, QWORD PTR -64[rbp]
	mov	rax, QWORD PTR 16[rax]
	.loc 1 44 14
	mov	rax, QWORD PTR 40[rax]
	mov	QWORD PTR -8[rbp], rax
	jmp	.L8
.L7:
	.loc 1 45 15
	mov	rax, QWORD PTR -64[rbp]
	mov	eax, DWORD PTR [rax]
	.loc 1 45 10
	cmp	eax, 21
	jne	.L9
	.loc 1 46 20
	mov	rax, QWORD PTR -64[rbp]
	mov	rax, QWORD PTR 16[rax]
	.loc 1 46 25
	mov	rax, QWORD PTR 40[rax]
	.loc 1 46 14
	mov	rax, QWORD PTR 8[rax]
	mov	QWORD PTR -8[rbp], rax
	jmp	.L8
.L9:
	.loc 1 48 14
	mov	rax, QWORD PTR -64[rbp]
	mov	rax, QWORD PTR 40[rax]
	mov	QWORD PTR -8[rbp], rax
.L8:
	.loc 1 52 4
	cmp	DWORD PTR -52[rbp], 16
	jne	.L10
	.loc 1 53 15
	mov	edx, DWORD PTR -20[rbp]
	mov	rax, QWORD PTR -8[rbp]
	mov	esi, edx
	mov	rdi, rax
	call	find_struct_member@PLT
	mov	QWORD PTR -16[rbp], rax
	jmp	.L12
.L10:
	.loc 1 55 15
	mov	rax, QWORD PTR -8[rbp]
	mov	rax, QWORD PTR 8[rax]
	mov	edx, DWORD PTR -20[rbp]
	mov	esi, edx
	mov	rdi, rax
	call	find_struct_member@PLT
	mov	QWORD PTR -16[rbp], rax
	.loc 1 58 7
	jmp	.L12
.L15:
	.loc 1 59 15
	mov	rax, QWORD PTR -16[rbp]
	mov	edx, DWORD PTR [rax]
	.loc 1 59 33
	mov	rax, QWORD PTR -40[rbp]
	mov	eax, DWORD PTR 32[rax]
	.loc 1 59 5
	cmp	edx, eax
	jne	.L13
	.loc 1 59 92 discriminator 1
	mov	rax, QWORD PTR -40[rbp]
	mov	eax, DWORD PTR 32[rax]
	.loc 1 59 43 discriminator 1
	movsx	rdx, eax
	.loc 1 59 75 discriminator 1
	mov	rax, QWORD PTR -16[rbp]
	mov	rcx, QWORD PTR 16[rax]
	.loc 1 59 59 discriminator 1
	mov	rax, QWORD PTR -40[rbp]
	mov	rax, QWORD PTR 24[rax]
	.loc 1 59 43 discriminator 1
	mov	rsi, rcx
	mov	rdi, rax
	call	memcmp@PLT
	.loc 1 59 39 discriminator 1
	test	eax, eax
	jne	.L13
	.loc 1 60 16
	mov	rax, QWORD PTR -16[rbp]
	mov	eax, DWORD PTR 4[rax]
	mov	edi, eax
	call	new_node_num@PLT
	.loc 1 60 14
	mov	rdx, QWORD PTR -32[rbp]
	mov	QWORD PTR 16[rdx], rax
	.loc 1 61 25
	mov	rax, QWORD PTR -16[rbp]
	mov	rdx, QWORD PTR 24[rax]
	.loc 1 61 14
	mov	rax, QWORD PTR -32[rbp]
	mov	QWORD PTR 40[rax], rdx
	.loc 1 62 4
	jmp	.L14
.L13:
	.loc 1 64 13
	mov	rax, QWORD PTR -16[rbp]
	mov	rax, QWORD PTR 32[rax]
	mov	QWORD PTR -16[rbp], rax
.L12:
	.loc 1 58 7
	cmp	QWORD PTR -16[rbp], 0
	jne	.L15
.L14:
	.loc 1 67 9
	mov	rax, QWORD PTR -32[rbp]
	.loc 1 68 1
	leave
	.cfi_def_cfa 7, 8
	ret
	.cfi_endproc
.LFE2:
	.size	dot_arrow, .-dot_arrow
	.globl	incdec
	.type	incdec, @function
incdec:
.LFB3:
	.loc 1 70 44
	.cfi_startproc
	push	rbp
	.cfi_def_cfa_offset 16
	.cfi_offset 6, -16
	mov	rbp, rsp
	.cfi_def_cfa_register 6
	sub	rsp, 32
	mov	QWORD PTR -24[rbp], rdi
	mov	DWORD PTR -28[rbp], esi
	.loc 1 79 14
	mov	esi, 72
	mov	edi, 1
	call	calloc@PLT
	mov	QWORD PTR -16[rbp], rax
	.loc 1 80 19
	mov	esi, 72
	mov	edi, 1
	call	calloc@PLT
	mov	QWORD PTR -8[rbp], rax
	.loc 1 83 4
	cmp	DWORD PTR -28[rbp], 0
	je	.L18
	.loc 1 83 23 discriminator 1
	cmp	DWORD PTR -28[rbp], 2
	jne	.L19
.L18:
	.loc 1 84 14
	mov	edi, 1
	call	new_node_num@PLT
	mov	rdx, rax
	mov	rax, QWORD PTR -24[rbp]
	mov	rsi, rax
	mov	edi, 0
	call	new_node@PLT
	mov	rdx, rax
	mov	rax, QWORD PTR -24[rbp]
	mov	rsi, rax
	mov	edi, 14
	call	new_node@PLT
	mov	QWORD PTR -8[rbp], rax
	.loc 1 84 12
	jmp	.L20
.L19:
	.loc 1 86 14
	mov	edi, 1
	call	new_node_num@PLT
	mov	rdx, rax
	mov	rax, QWORD PTR -24[rbp]
	mov	rsi, rax
	mov	edi, 1
	call	new_node@PLT
	mov	rdx, rax
	mov	rax, QWORD PTR -24[rbp]
	mov	rsi, rax
	mov	edi, 14
	call	new_node@PLT
	mov	QWORD PTR -8[rbp], rax
.L20:
	.loc 1 90 4
	cmp	DWORD PTR -28[rbp], 0
	je	.L21
	.loc 1 90 23 discriminator 1
	cmp	DWORD PTR -28[rbp], 1
	jne	.L22
.L21:
	.loc 1 91 13
	mov	rax, QWORD PTR -16[rbp]
	mov	DWORD PTR [rax], 18
	.loc 1 92 13
	mov	rax, QWORD PTR -16[rbp]
	mov	rdx, QWORD PTR -8[rbp]
	mov	QWORD PTR 8[rax], rdx
	.loc 1 93 13
	mov	rax, QWORD PTR -16[rbp]
	mov	rdx, QWORD PTR -24[rbp]
	mov	QWORD PTR 16[rax], rdx
	jmp	.L23
.L22:
	.loc 1 96 13
	mov	rax, QWORD PTR -16[rbp]
	mov	DWORD PTR [rax], 15
	.loc 1 97 13
	mov	rax, QWORD PTR -16[rbp]
	mov	rdx, QWORD PTR -24[rbp]
	mov	QWORD PTR 8[rax], rdx
	.loc 1 98 13
	mov	rax, QWORD PTR -16[rbp]
	mov	rdx, QWORD PTR -8[rbp]
	mov	QWORD PTR 16[rax], rdx
.L23:
	.loc 1 101 18
	mov	rax, QWORD PTR -24[rbp]
	mov	rdx, QWORD PTR 40[rax]
	.loc 1 101 12
	mov	rax, QWORD PTR -16[rbp]
	mov	QWORD PTR 40[rax], rdx
	.loc 1 102 9
	mov	rax, QWORD PTR -16[rbp]
	.loc 1 103 1
	leave
	.cfi_def_cfa 7, 8
	ret
	.cfi_endproc
.LFE3:
	.size	incdec, .-incdec
	.section	.rodata
.LC1:
	.string	"Invalid array size"
.LC2:
	.string	"Invalid assign"
	.text
	.globl	init_formula
	.type	init_formula, @function
init_formula:
.LFB4:
	.loc 1 105 47
	.cfi_startproc
	push	rbp
	.cfi_def_cfa_offset 16
	.cfi_offset 6, -16
	mov	rbp, rsp
	.cfi_def_cfa_register 6
	sub	rsp, 16
	mov	QWORD PTR -8[rbp], rdi
	mov	QWORD PTR -16[rbp], rsi
	.loc 1 106 17
	mov	rax, QWORD PTR -16[rbp]
	mov	eax, DWORD PTR [rax]
	.loc 1 106 2
	cmp	eax, 26
	jne	.L26
	.loc 1 108 11
	mov	rax, QWORD PTR -8[rbp]
	mov	rax, QWORD PTR 40[rax]
	.loc 1 108 17
	mov	eax, DWORD PTR [rax]
	.loc 1 108 6
	cmp	eax, 4
	jne	.L27
	.loc 1 109 12
	mov	rdx, QWORD PTR -16[rbp]
	mov	rax, QWORD PTR -8[rbp]
	mov	rsi, rax
	mov	edi, 13
	call	new_node@PLT
	mov	QWORD PTR -8[rbp], rax
	.loc 1 119 4
	jmp	.L33
.L27:
	.loc 1 110 17
	mov	rax, QWORD PTR -8[rbp]
	mov	rax, QWORD PTR 40[rax]
	.loc 1 110 23
	mov	eax, DWORD PTR [rax]
	.loc 1 110 12
	cmp	eax, 5
	jne	.L29
	.loc 1 111 12
	mov	rax, QWORD PTR -8[rbp]
	mov	rax, QWORD PTR 40[rax]
	.loc 1 111 18
	mov	edx, DWORD PTR 24[rax]
	.loc 1 111 42
	mov	rax, QWORD PTR -16[rbp]
	mov	eax, DWORD PTR 64[rax]
	.loc 1 111 50
	add	eax, 1
	.loc 1 111 7
	cmp	edx, eax
	je	.L30
	.loc 1 111 60 discriminator 1
	mov	rax, QWORD PTR -8[rbp]
	mov	rax, QWORD PTR 40[rax]
	.loc 1 111 66 discriminator 1
	mov	eax, DWORD PTR 24[rax]
	.loc 1 111 53 discriminator 1
	cmp	eax, -1
	jne	.L31
.L30:
	.loc 1 112 13
	mov	rdx, QWORD PTR -16[rbp]
	mov	rax, QWORD PTR -8[rbp]
	mov	rsi, rdx
	mov	rdi, rax
	call	array_str
	mov	QWORD PTR -8[rbp], rax
	.loc 1 112 11
	nop
	.loc 1 119 4
	jmp	.L33
.L31:
	.loc 1 114 20
	mov	rax, QWORD PTR token[rip]
	.loc 1 114 6
	mov	rax, QWORD PTR 24[rax]
	lea	rsi, .LC1[rip]
	mov	rdi, rax
	call	error_at@PLT
	.loc 1 119 4
	jmp	.L33
.L29:
	.loc 1 117 19
	mov	rax, QWORD PTR token[rip]
	.loc 1 117 5
	mov	rax, QWORD PTR 24[rax]
	lea	rsi, .LC2[rip]
	mov	rdi, rax
	call	error_at@PLT
	.loc 1 119 4
	jmp	.L33
.L26:
	.loc 1 121 11
	mov	rdx, QWORD PTR -16[rbp]
	mov	rax, QWORD PTR -8[rbp]
	mov	rsi, rax
	mov	edi, 13
	call	new_node@PLT
	mov	QWORD PTR -8[rbp], rax
	.loc 1 122 4
	nop
.L33:
	.loc 1 125 9
	mov	rax, QWORD PTR -8[rbp]
	.loc 1 126 1
	leave
	.cfi_def_cfa 7, 8
	ret
	.cfi_endproc
.LFE4:
	.size	init_formula, .-init_formula
	.globl	array_str
	.type	array_str, @function
array_str:
.LFB5:
	.loc 1 128 43
	.cfi_startproc
	push	rbp
	.cfi_def_cfa_offset 16
	.cfi_offset 6, -16
	mov	rbp, rsp
	.cfi_def_cfa_register 6
	push	rbx
	sub	rsp, 88
	.cfi_offset 3, -24
	mov	QWORD PTR -88[rbp], rdi
	mov	QWORD PTR -96[rbp], rsi
	.loc 1 129 6
	mov	DWORD PTR -20[rbp], 0
	.loc 1 130 17
	mov	rax, QWORD PTR -88[rbp]
	mov	rax, QWORD PTR 40[rax]
	.loc 1 130 6
	mov	eax, DWORD PTR 24[rax]
	mov	DWORD PTR -36[rbp], eax
	.loc 1 132 15
	mov	esi, 72
	mov	edi, 1
	call	calloc@PLT
	mov	QWORD PTR -32[rbp], rax
	.loc 1 133 15
	mov	edx, 0
	mov	esi, 0
	mov	edi, 31
	call	new_node@PLT
	mov	QWORD PTR -48[rbp], rax
	.loc 1 135 16
	mov	esi, 72
	mov	edi, 1
	call	calloc@PLT
	mov	QWORD PTR -56[rbp], rax
	.loc 1 136 2
	mov	rcx, QWORD PTR -88[rbp]
	mov	rax, QWORD PTR -56[rbp]
	mov	edx, 72
	mov	rsi, rcx
	mov	rdi, rax
	call	memcpy@PLT
	.loc 1 137 19
	mov	rax, QWORD PTR -88[rbp]
	mov	edx, DWORD PTR [rax]
	.loc 1 137 14
	mov	rax, QWORD PTR -56[rbp]
	mov	DWORD PTR [rax], edx
	.loc 1 139 7
	jmp	.L36
.L39:
	.loc 1 140 9
	mov	eax, DWORD PTR -20[rbp]
	mov	edi, eax
	call	new_node_num@PLT
	mov	rdx, rax
	mov	rax, QWORD PTR -56[rbp]
	mov	rsi, rdx
	mov	rdi, rax
	call	array_index
	mov	QWORD PTR -72[rbp], rax
	.loc 1 142 5
	cmp	DWORD PTR -20[rbp], 0
	jne	.L37
	.loc 1 143 58
	mov	rax, QWORD PTR -96[rbp]
	mov	rdx, QWORD PTR 56[rax]
	.loc 1 143 64
	mov	eax, DWORD PTR -20[rbp]
	cdqe
	add	rax, rdx
	.loc 1 143 48
	movzx	eax, BYTE PTR [rax]
	.loc 1 143 10
	movsx	eax, al
	mov	edi, eax
	call	new_node_num@PLT
	mov	rdx, rax
	mov	rax, QWORD PTR -72[rbp]
	mov	rsi, rax
	mov	edi, 13
	call	new_node@PLT
	mov	QWORD PTR -32[rbp], rax
	.loc 1 144 14
	mov	rax, QWORD PTR -48[rbp]
	mov	rdx, QWORD PTR -32[rbp]
	mov	QWORD PTR 16[rax], rdx
	jmp	.L38
.L37:
	.loc 1 146 70
	mov	rax, QWORD PTR -96[rbp]
	mov	rdx, QWORD PTR 56[rax]
	.loc 1 146 76
	mov	eax, DWORD PTR -20[rbp]
	cdqe
	add	rax, rdx
	.loc 1 146 60
	movzx	eax, BYTE PTR [rax]
	.loc 1 146 22
	movsx	eax, al
	mov	edi, eax
	call	new_node_num@PLT
	mov	rdx, rax
	mov	rax, QWORD PTR -72[rbp]
	mov	rsi, rax
	mov	edi, 13
	call	new_node@PLT
	.loc 1 146 20
	mov	rdx, QWORD PTR -32[rbp]
	mov	QWORD PTR 32[rdx], rax
	.loc 1 147 8
	mov	rax, QWORD PTR -32[rbp]
	mov	rax, QWORD PTR 32[rax]
	mov	QWORD PTR -32[rbp], rax
.L38:
	.loc 1 149 6
	add	DWORD PTR -20[rbp], 1
.L36:
	.loc 1 139 22
	mov	rax, QWORD PTR -96[rbp]
	mov	eax, DWORD PTR 64[rax]
	.loc 1 139 7
	cmp	DWORD PTR -20[rbp], eax
	jl	.L39
	.loc 1 153 20
	mov	edi, 0
	call	new_node_num@PLT
	mov	rbx, rax
	mov	rax, QWORD PTR -96[rbp]
	mov	eax, DWORD PTR 64[rax]
	mov	edi, eax
	call	new_node_num@PLT
	mov	rdx, rax
	mov	rax, QWORD PTR -56[rbp]
	mov	rsi, rdx
	mov	rdi, rax
	call	array_index
	mov	rdx, rbx
	mov	rsi, rax
	mov	edi, 13
	call	new_node@PLT
	.loc 1 153 18
	mov	rdx, QWORD PTR -32[rbp]
	mov	QWORD PTR 32[rdx], rax
	.loc 1 154 6
	mov	rax, QWORD PTR -32[rbp]
	mov	rax, QWORD PTR 32[rax]
	mov	QWORD PTR -32[rbp], rax
	.loc 1 155 5
	add	DWORD PTR -20[rbp], 1
	.loc 1 158 4
	cmp	DWORD PTR -36[rbp], -1
	jne	.L40
	.loc 1 159 9
	mov	rax, QWORD PTR -88[rbp]
	mov	eax, DWORD PTR [rax]
	.loc 1 159 5
	cmp	eax, 24
	jne	.L41
.LBB2:
	.loc 1 160 16
	mov	rax, QWORD PTR -88[rbp]
	mov	rdx, QWORD PTR 40[rax]
	mov	eax, DWORD PTR -20[rbp]
	mov	rsi, rdx
	mov	edi, eax
	call	align_array_size@PLT
	mov	DWORD PTR -60[rbp], eax
	.loc 1 161 14
	mov	edx, DWORD PTR alloc_size[rip]
	mov	eax, DWORD PTR -60[rbp]
	add	eax, edx
	mov	DWORD PTR alloc_size[rip], eax
	.loc 1 162 30
	mov	rax, QWORD PTR locals[rip]
	.loc 1 162 47
	test	rax, rax
	je	.L42
	.loc 1 162 38 discriminator 1
	mov	rax, QWORD PTR locals[rip]
	.loc 1 162 47 discriminator 1
	mov	eax, DWORD PTR 4[rax]
	jmp	.L43
.L42:
	.loc 1 162 47 is_stmt 0 discriminator 2
	mov	eax, 0
.L43:
	.loc 1 162 51 is_stmt 1 discriminator 4
	mov	edx, DWORD PTR -60[rbp]
	add	edx, eax
	.loc 1 162 19 discriminator 4
	mov	rax, QWORD PTR -88[rbp]
	mov	DWORD PTR 64[rax], edx
	.loc 1 163 24 discriminator 4
	mov	rax, QWORD PTR -88[rbp]
	mov	edx, DWORD PTR 64[rax]
	.loc 1 163 19 discriminator 4
	mov	rax, QWORD PTR -56[rbp]
	mov	DWORD PTR 64[rax], edx
	.loc 1 164 10 discriminator 4
	mov	rax, QWORD PTR locals[rip]
	.loc 1 164 24 discriminator 4
	mov	rdx, QWORD PTR -88[rbp]
	mov	edx, DWORD PTR 64[rdx]
	.loc 1 164 19 discriminator 4
	mov	DWORD PTR 4[rax], edx
	.loc 1 165 10 discriminator 4
	mov	rax, QWORD PTR locals[rip]
	mov	rax, QWORD PTR 16[rax]
	.loc 1 165 29 discriminator 4
	mov	edx, DWORD PTR -20[rbp]
	mov	DWORD PTR 24[rax], edx
	.loc 1 166 42 discriminator 4
	mov	rax, QWORD PTR locals[rip]
	.loc 1 166 26 discriminator 4
	mov	rax, QWORD PTR 16[rax]
	.loc 1 166 10 discriminator 4
	mov	rdx, QWORD PTR locals[rip]
	mov	rbx, QWORD PTR 16[rdx]
	.loc 1 166 26 discriminator 4
	mov	rdi, rax
	call	type_size@PLT
	.loc 1 166 24 discriminator 4
	mov	DWORD PTR 16[rbx], eax
	.loc 1 167 42 discriminator 4
	mov	rax, QWORD PTR locals[rip]
	.loc 1 167 26 discriminator 4
	mov	rax, QWORD PTR 16[rax]
	.loc 1 167 10 discriminator 4
	mov	rdx, QWORD PTR locals[rip]
	mov	rbx, QWORD PTR 16[rdx]
	.loc 1 167 26 discriminator 4
	mov	rdi, rax
	call	type_size@PLT
	.loc 1 167 24 discriminator 4
	mov	DWORD PTR 20[rbx], eax
.LBE2:
	jmp	.L40
.L41:
	.loc 1 169 23
	mov	rax, QWORD PTR -88[rbp]
	mov	rdx, QWORD PTR 40[rax]
	.loc 1 169 11
	mov	rbx, QWORD PTR globals[rip]
	.loc 1 169 23
	mov	eax, DWORD PTR -20[rbp]
	mov	rsi, rdx
	mov	edi, eax
	call	align_array_size@PLT
	.loc 1 169 21
	mov	DWORD PTR 4[rbx], eax
.L40:
	.loc 1 173 9
	mov	rax, QWORD PTR -48[rbp]
	.loc 1 174 1
	add	rsp, 88
	pop	rbx
	pop	rbp
	.cfi_def_cfa 7, 8
	ret
	.cfi_endproc
.LFE5:
	.size	array_str, .-array_str
	.section	.rodata
.LC3:
	.string	","
.LC4:
	.string	"}"
	.text
	.globl	array_block
	.type	array_block, @function
array_block:
.LFB6:
	.loc 1 176 29
	.cfi_startproc
	push	rbp
	.cfi_def_cfa_offset 16
	.cfi_offset 6, -16
	mov	rbp, rsp
	.cfi_def_cfa_register 6
	push	rbx
	sub	rsp, 88
	.cfi_offset 3, -24
	mov	QWORD PTR -88[rbp], rdi
	.loc 1 177 6
	mov	DWORD PTR -20[rbp], 0
	.loc 1 178 17
	mov	rax, QWORD PTR -88[rbp]
	mov	rax, QWORD PTR 40[rax]
	.loc 1 178 6
	mov	eax, DWORD PTR 24[rax]
	mov	DWORD PTR -36[rbp], eax
	.loc 1 180 14
	mov	esi, 72
	mov	edi, 1
	call	calloc@PLT
	mov	QWORD PTR -32[rbp], rax
	.loc 1 181 15
	mov	edx, 0
	mov	esi, 0
	mov	edi, 31
	call	new_node@PLT
	mov	QWORD PTR -48[rbp], rax
	.loc 1 183 16
	mov	esi, 72
	mov	edi, 1
	call	calloc@PLT
	mov	QWORD PTR -56[rbp], rax
	.loc 1 184 2
	mov	rcx, QWORD PTR -88[rbp]
	mov	rax, QWORD PTR -56[rbp]
	mov	edx, 72
	mov	rsi, rcx
	mov	rdi, rax
	call	memcpy@PLT
	.loc 1 185 19
	mov	rax, QWORD PTR -88[rbp]
	mov	edx, DWORD PTR [rax]
	.loc 1 185 14
	mov	rax, QWORD PTR -56[rbp]
	mov	DWORD PTR [rax], edx
	.loc 1 187 7
	jmp	.L46
.L49:
	.loc 1 188 9
	mov	eax, DWORD PTR -20[rbp]
	mov	edi, eax
	call	new_node_num@PLT
	mov	rdx, rax
	mov	rax, QWORD PTR -56[rbp]
	mov	rsi, rdx
	mov	rdi, rax
	call	array_index
	mov	QWORD PTR -64[rbp], rax
	.loc 1 190 5
	cmp	DWORD PTR -20[rbp], 0
	jne	.L47
	.loc 1 191 10
	call	expr@PLT
	mov	rdx, rax
	mov	rax, QWORD PTR -64[rbp]
	mov	rsi, rax
	mov	edi, 13
	call	new_node@PLT
	mov	QWORD PTR -32[rbp], rax
	.loc 1 192 14
	mov	rax, QWORD PTR -48[rbp]
	mov	rdx, QWORD PTR -32[rbp]
	mov	QWORD PTR 16[rax], rdx
	jmp	.L48
.L47:
	.loc 1 194 22
	call	expr@PLT
	mov	rdx, rax
	mov	rax, QWORD PTR -64[rbp]
	mov	rsi, rax
	mov	edi, 13
	call	new_node@PLT
	.loc 1 194 20
	mov	rdx, QWORD PTR -32[rbp]
	mov	QWORD PTR 32[rdx], rax
	.loc 1 195 8
	mov	rax, QWORD PTR -32[rbp]
	mov	rax, QWORD PTR 32[rax]
	mov	QWORD PTR -32[rbp], rax
.L48:
	.loc 1 197 3
	lea	rdi, .LC3[rip]
	call	consume@PLT
	.loc 1 198 6
	add	DWORD PTR -20[rbp], 1
.L46:
	.loc 1 187 13
	mov	rax, QWORD PTR token[rip]
	mov	eax, DWORD PTR [rax]
	.loc 1 187 7
	cmp	eax, 13
	jne	.L49
	.loc 1 201 2
	lea	rdi, .LC4[rip]
	call	expect@PLT
	.loc 1 204 4
	cmp	DWORD PTR -36[rbp], -1
	jne	.L50
	.loc 1 205 9
	mov	rax, QWORD PTR -88[rbp]
	mov	eax, DWORD PTR [rax]
	.loc 1 205 5
	cmp	eax, 24
	jne	.L51
.LBB3:
	.loc 1 206 16
	mov	rax, QWORD PTR -88[rbp]
	mov	rdx, QWORD PTR 40[rax]
	mov	eax, DWORD PTR -20[rbp]
	mov	rsi, rdx
	mov	edi, eax
	call	align_array_size@PLT
	mov	DWORD PTR -68[rbp], eax
	.loc 1 207 14
	mov	edx, DWORD PTR alloc_size[rip]
	mov	eax, DWORD PTR -68[rbp]
	add	eax, edx
	mov	DWORD PTR alloc_size[rip], eax
	.loc 1 208 27
	mov	rax, QWORD PTR locals[rip]
	.loc 1 208 44
	test	rax, rax
	je	.L52
	.loc 1 208 35 discriminator 1
	mov	rax, QWORD PTR locals[rip]
	.loc 1 208 44 discriminator 1
	mov	eax, DWORD PTR 4[rax]
	jmp	.L53
.L52:
	.loc 1 208 44 is_stmt 0 discriminator 2
	mov	eax, 0
.L53:
	.loc 1 208 48 is_stmt 1 discriminator 4
	mov	edx, DWORD PTR -68[rbp]
	add	edx, eax
	.loc 1 208 16 discriminator 4
	mov	rax, QWORD PTR -88[rbp]
	mov	DWORD PTR 64[rax], edx
	.loc 1 209 23 discriminator 4
	mov	rax, QWORD PTR -88[rbp]
	mov	edx, DWORD PTR 64[rax]
	.loc 1 209 18 discriminator 4
	mov	rax, QWORD PTR -56[rbp]
	mov	DWORD PTR 64[rax], edx
	.loc 1 210 10 discriminator 4
	mov	rax, QWORD PTR locals[rip]
	.loc 1 210 24 discriminator 4
	mov	rdx, QWORD PTR -88[rbp]
	mov	edx, DWORD PTR 64[rdx]
	.loc 1 210 19 discriminator 4
	mov	DWORD PTR 4[rax], edx
	.loc 1 211 10 discriminator 4
	mov	rax, QWORD PTR locals[rip]
	mov	rax, QWORD PTR 16[rax]
	.loc 1 211 29 discriminator 4
	mov	edx, DWORD PTR -20[rbp]
	mov	DWORD PTR 24[rax], edx
	.loc 1 212 42 discriminator 4
	mov	rax, QWORD PTR locals[rip]
	.loc 1 212 26 discriminator 4
	mov	rax, QWORD PTR 16[rax]
	.loc 1 212 10 discriminator 4
	mov	rdx, QWORD PTR locals[rip]
	mov	rbx, QWORD PTR 16[rdx]
	.loc 1 212 26 discriminator 4
	mov	rdi, rax
	call	type_size@PLT
	.loc 1 212 24 discriminator 4
	mov	DWORD PTR 16[rbx], eax
	.loc 1 213 42 discriminator 4
	mov	rax, QWORD PTR locals[rip]
	.loc 1 213 26 discriminator 4
	mov	rax, QWORD PTR 16[rax]
	.loc 1 213 10 discriminator 4
	mov	rdx, QWORD PTR locals[rip]
	mov	rbx, QWORD PTR 16[rdx]
	.loc 1 213 26 discriminator 4
	mov	rdi, rax
	call	type_size@PLT
	.loc 1 213 24 discriminator 4
	mov	DWORD PTR 20[rbx], eax
.LBE3:
	jmp	.L54
.L51:
	.loc 1 215 23
	mov	rax, QWORD PTR -88[rbp]
	mov	rdx, QWORD PTR 40[rax]
	.loc 1 215 11
	mov	rbx, QWORD PTR globals[rip]
	.loc 1 215 23
	mov	eax, DWORD PTR -20[rbp]
	mov	rsi, rdx
	mov	edi, eax
	call	align_array_size@PLT
	.loc 1 215 21
	mov	DWORD PTR 4[rbx], eax
	jmp	.L54
.L50:
	.loc 1 218 14
	mov	rax, QWORD PTR -88[rbp]
	mov	rax, QWORD PTR 40[rax]
	.loc 1 218 20
	mov	eax, DWORD PTR 24[rax]
	.loc 1 218 10
	cmp	DWORD PTR -20[rbp], eax
	jle	.L55
	.loc 1 219 17
	mov	rax, QWORD PTR token[rip]
	.loc 1 219 3
	mov	rax, QWORD PTR 24[rax]
	lea	rsi, .LC1[rip]
	mov	rdi, rax
	call	error_at@PLT
	jmp	.L54
.L55:
	.loc 1 221 14
	mov	rax, QWORD PTR -88[rbp]
	mov	rax, QWORD PTR 40[rax]
	.loc 1 221 20
	mov	eax, DWORD PTR 24[rax]
	.loc 1 221 10
	cmp	DWORD PTR -20[rbp], eax
	jge	.L54
	.loc 1 222 8
	jmp	.L56
.L57:
	.loc 1 223 10
	mov	eax, DWORD PTR -20[rbp]
	mov	edi, eax
	call	new_node_num@PLT
	mov	rdx, rax
	mov	rax, QWORD PTR -56[rbp]
	mov	rsi, rdx
	mov	rdi, rax
	call	array_index
	mov	QWORD PTR -64[rbp], rax
	.loc 1 224 22
	mov	edi, 0
	call	new_node_num@PLT
	mov	rdx, rax
	mov	rax, QWORD PTR -64[rbp]
	mov	rsi, rax
	mov	edi, 13
	call	new_node@PLT
	.loc 1 224 20
	mov	rdx, QWORD PTR -32[rbp]
	mov	QWORD PTR 32[rdx], rax
	.loc 1 225 8
	mov	rax, QWORD PTR -32[rbp]
	mov	rax, QWORD PTR 32[rax]
	mov	QWORD PTR -32[rbp], rax
	.loc 1 227 7
	add	DWORD PTR -20[rbp], 1
	.loc 1 228 4
	lea	rdi, .LC3[rip]
	call	consume@PLT
.L56:
	.loc 1 222 19
	mov	rax, QWORD PTR -88[rbp]
	mov	rax, QWORD PTR 40[rax]
	.loc 1 222 25
	mov	eax, DWORD PTR 24[rax]
	.loc 1 222 8
	cmp	DWORD PTR -20[rbp], eax
	jne	.L57
.L54:
	.loc 1 232 9
	mov	rax, QWORD PTR -48[rbp]
	.loc 1 233 1
	add	rsp, 88
	pop	rbx
	pop	rbp
	.cfi_def_cfa 7, 8
	ret
	.cfi_endproc
.LFE6:
	.size	array_block, .-array_block
	.section	.rodata
.LC5:
	.string	"("
.LC6:
	.string	")"
	.text
	.globl	call_function
	.type	call_function, @function
call_function:
.LFB7:
	.loc 1 235 44
	.cfi_startproc
	push	rbp
	.cfi_def_cfa_offset 16
	.cfi_offset 6, -16
	mov	rbp, rsp
	.cfi_def_cfa_register 6
	sub	rsp, 32
	mov	QWORD PTR -24[rbp], rdi
	mov	QWORD PTR -32[rbp], rsi
	.loc 1 236 2
	lea	rdi, .LC5[rip]
	call	expect@PLT
	.loc 1 238 13
	mov	rax, QWORD PTR -24[rbp]
	mov	DWORD PTR [rax], 28
	.loc 1 239 18
	mov	rax, QWORD PTR -32[rbp]
	mov	rdx, QWORD PTR 24[rax]
	.loc 1 239 13
	mov	rax, QWORD PTR -24[rbp]
	mov	QWORD PTR 56[rax], rdx
	.loc 1 240 18
	mov	rax, QWORD PTR -32[rbp]
	mov	edx, DWORD PTR 32[rax]
	.loc 1 240 13
	mov	rax, QWORD PTR -24[rbp]
	mov	DWORD PTR 48[rax], edx
	.loc 1 243 5
	lea	rdi, .LC6[rip]
	call	consume@PLT
	.loc 1 243 4
	test	al, al
	je	.L60
	.loc 1 243 26 discriminator 1
	mov	rax, QWORD PTR -24[rbp]
	jmp	.L61
.L60:
	.loc 1 245 6
	mov	DWORD PTR -4[rbp], 0
	.loc 1 246 8
	mov	QWORD PTR -16[rbp], 0
.L66:
	.loc 1 248 5
	cmp	QWORD PTR -16[rbp], 0
	jne	.L62
	.loc 1 249 16
	call	logical@PLT
	mov	QWORD PTR -16[rbp], rax
	.loc 1 250 14
	mov	rax, QWORD PTR -24[rbp]
	mov	rdx, QWORD PTR -16[rbp]
	mov	QWORD PTR 16[rax], rdx
	jmp	.L63
.L62:
	.loc 1 252 17
	call	logical@PLT
	.loc 1 252 15
	mov	rdx, QWORD PTR -16[rbp]
	mov	QWORD PTR 24[rdx], rax
	.loc 1 253 15
	mov	rax, QWORD PTR -16[rbp]
	mov	rax, QWORD PTR 24[rax]
	mov	QWORD PTR -16[rbp], rax
.L63:
	.loc 1 256 6
	add	DWORD PTR -4[rbp], 1
	.loc 1 258 8
	lea	rdi, .LC3[rip]
	call	consume@PLT
	.loc 1 258 6
	xor	eax, 1
	.loc 1 258 5
	test	al, al
	jne	.L68
	.loc 1 248 5
	jmp	.L66
.L68:
	.loc 1 258 3
	nop
	.loc 1 260 2
	lea	rdi, .LC6[rip]
	call	expect@PLT
	.loc 1 262 9
	mov	rax, QWORD PTR -24[rbp]
.L61:
	.loc 1 263 1
	leave
	.cfi_def_cfa 7, 8
	ret
	.cfi_endproc
.LFE7:
	.size	call_function, .-call_function
	.globl	array_index
	.type	array_index, @function
array_index:
.LFB8:
	.loc 1 265 43
	.cfi_startproc
	push	rbp
	.cfi_def_cfa_offset 16
	.cfi_offset 6, -16
	mov	rbp, rsp
	.cfi_def_cfa_register 6
	sub	rsp, 16
	mov	QWORD PTR -8[rbp], rdi
	mov	QWORD PTR -16[rbp], rsi
	.loc 1 267 9
	mov	rdx, QWORD PTR -16[rbp]
	mov	rax, QWORD PTR -8[rbp]
	mov	rsi, rax
	mov	edi, 0
	call	new_node@PLT
	mov	QWORD PTR -8[rbp], rax
	.loc 1 268 9
	mov	rax, QWORD PTR -8[rbp]
	mov	rdx, rax
	mov	esi, 0
	mov	edi, 21
	call	new_node@PLT
	mov	QWORD PTR -8[rbp], rax
	.loc 1 270 9
	mov	rax, QWORD PTR -8[rbp]
	.loc 1 271 1
	leave
	.cfi_def_cfa 7, 8
	ret
	.cfi_endproc
.LFE8:
	.size	array_index, .-array_index
	.section	.rodata
.LC7:
	.string	"void"
	.text
	.globl	get_argument
	.type	get_argument, @function
get_argument:
.LFB9:
	.loc 1 273 34
	.cfi_startproc
	push	rbp
	.cfi_def_cfa_offset 16
	.cfi_offset 6, -16
	mov	rbp, rsp
	.cfi_def_cfa_register 6
	push	rbx
	sub	rsp, 40
	.cfi_offset 3, -24
	mov	DWORD PTR -36[rbp], edi
	.loc 1 274 5
	mov	esi, 0
	lea	rdi, .LC7[rip]
	call	consume_reserved_word@PLT
	.loc 1 274 4
	test	al, al
	je	.L72
	.loc 1 275 12
	mov	eax, DWORD PTR -36[rbp]
	cdqe
	lea	rdx, 0[0+rax*8]
	lea	rax, func_list[rip]
	mov	rax, QWORD PTR [rdx+rax]
	.loc 1 275 31
	mov	QWORD PTR 24[rax], 0
	.loc 1 276 3
	lea	rdi, .LC6[rip]
	call	expect@PLT
	.loc 1 277 3
	jmp	.L71
.L72:
	.loc 1 281 5
	lea	rdi, .LC6[rip]
	call	consume@PLT
	.loc 1 281 4
	test	al, al
	je	.L74
	.loc 1 282 12
	mov	eax, DWORD PTR -36[rbp]
	cdqe
	lea	rdx, 0[0+rax*8]
	lea	rax, func_list[rip]
	mov	rax, QWORD PTR [rdx+rax]
	.loc 1 282 31
	mov	QWORD PTR 24[rax], 0
	jmp	.L71
.L74:
.LBB4:
	.loc 1 285 9
	mov	QWORD PTR -24[rbp], 0
	.loc 1 286 7
	mov	DWORD PTR -28[rbp], 0
	.loc 1 288 8
	jmp	.L75
.L79:
	.loc 1 289 6
	cmp	QWORD PTR -24[rbp], 0
	jne	.L76
	.loc 1 290 21
	mov	esi, 72
	mov	edi, 1
	call	calloc@PLT
	mov	QWORD PTR -24[rbp], rax
	.loc 1 291 19
	mov	rax, QWORD PTR -24[rbp]
	mov	DWORD PTR [rax], 43
	.loc 1 292 19
	mov	rax, QWORD PTR -24[rbp]
	mov	edx, DWORD PTR -28[rbp]
	mov	DWORD PTR 48[rax], edx
	.loc 1 293 21
	call	expr@PLT
	.loc 1 293 19
	mov	rdx, QWORD PTR -24[rbp]
	mov	QWORD PTR 16[rdx], rax
	.loc 1 294 14
	mov	eax, DWORD PTR -36[rbp]
	cdqe
	lea	rdx, 0[0+rax*8]
	lea	rax, func_list[rip]
	mov	rax, QWORD PTR [rdx+rax]
	.loc 1 294 33
	mov	rdx, QWORD PTR -24[rbp]
	mov	QWORD PTR 24[rax], rdx
	jmp	.L77
.L76:
	.loc 1 296 27
	mov	esi, 72
	mov	edi, 1
	call	calloc@PLT
	mov	rdx, rax
	.loc 1 296 25
	mov	rax, QWORD PTR -24[rbp]
	mov	QWORD PTR 24[rax], rdx
	.loc 1 297 12
	mov	rax, QWORD PTR -24[rbp]
	mov	rax, QWORD PTR 24[rax]
	.loc 1 297 25
	mov	DWORD PTR [rax], 43
	.loc 1 298 12
	mov	rax, QWORD PTR -24[rbp]
	mov	rax, QWORD PTR 24[rax]
	.loc 1 298 25
	mov	edx, DWORD PTR -28[rbp]
	mov	DWORD PTR 48[rax], edx
	.loc 1 299 12
	mov	rax, QWORD PTR -24[rbp]
	mov	rbx, QWORD PTR 24[rax]
	.loc 1 299 27
	call	expr@PLT
	.loc 1 299 25
	mov	QWORD PTR 16[rbx], rax
	.loc 1 300 25
	mov	rax, QWORD PTR -24[rbp]
	mov	rax, QWORD PTR 24[rax]
	mov	QWORD PTR -24[rbp], rax
.L77:
	.loc 1 302 15
	add	DWORD PTR -28[rbp], 1
	.loc 1 304 9
	lea	rdi, .LC3[rip]
	call	consume@PLT
	.loc 1 304 7
	xor	eax, 1
	.loc 1 304 6
	test	al, al
	jne	.L80
.L75:
	.loc 1 288 14
	mov	rax, QWORD PTR token[rip]
	mov	eax, DWORD PTR [rax]
	.loc 1 288 8
	cmp	eax, 3
	je	.L79
	.loc 1 288 39 discriminator 1
	mov	rax, QWORD PTR token[rip]
	mov	eax, DWORD PTR [rax]
	.loc 1 288 31 discriminator 1
	test	eax, eax
	je	.L79
	.loc 1 288 61 discriminator 2
	mov	rax, QWORD PTR token[rip]
	mov	esi, 0
	mov	rdi, rax
	call	find_defined_type@PLT
	.loc 1 288 58 discriminator 2
	test	rax, rax
	jne	.L79
	jmp	.L78
.L80:
	.loc 1 305 5
	nop
.L78:
	.loc 1 308 3
	lea	rdi, .LC6[rip]
	call	expect@PLT
.L71:
.LBE4:
	.loc 1 310 1
	add	rsp, 40
	pop	rbx
	pop	rbp
	.cfi_def_cfa 7, 8
	ret
	.cfi_endproc
.LFE9:
	.size	get_argument, .-get_argument
.Letext0:
	.file 2 "/usr/lib/gcc/x86_64-linux-gnu/9/include/stddef.h"
	.file 3 "/usr/include/x86_64-linux-gnu/bits/types.h"
	.file 4 "/usr/include/x86_64-linux-gnu/bits/types/struct_FILE.h"
	.file 5 "/usr/include/x86_64-linux-gnu/bits/types/FILE.h"
	.file 6 "/usr/include/stdio.h"
	.file 7 "../include/cc_sakura.h"
	.section	.note.GNU-stack,"",@progbits
