	.file	"syntax_tree.c"
	.intel_syntax noprefix
	.text
.Ltext0:
	.comm	alloc_size,4,4
	.comm	token,8,8
	.comm	strings,8,8
	.section	.rodata
.LC0:
	.string	"("
.LC1:
	.string	")"
.LC2:
	.string	"\""
	.align 8
.LC3:
	.string	"this variable is not declaration"
	.text
	.globl	data
	.type	data, @function
data:
.LFB0:
	.file 1 "../src/syntax_tree.c"
	.loc 1 9 17
	.cfi_startproc
	push	rbp
	.cfi_def_cfa_offset 16
	.cfi_offset 6, -16
	mov	rbp, rsp
	.cfi_def_cfa_register 6
	sub	rsp, 112
	.loc 1 10 5
	lea	rdi, .LC0[rip]
	call	consume@PLT
	.loc 1 10 4
	test	al, al
	je	.L2
.LBB2:
	.loc 1 11 16
	call	expr
	mov	QWORD PTR -104[rbp], rax
	.loc 1 12 3
	lea	rdi, .LC1[rip]
	call	expect@PLT
	.loc 1 13 10
	mov	rax, QWORD PTR -104[rbp]
	jmp	.L3
.L2:
.LBE2:
	.loc 1 17 10
	mov	rax, QWORD PTR token[rip]
	mov	eax, DWORD PTR [rax]
	.loc 1 17 4
	cmp	eax, 21
	jne	.L4
.LBB3:
	.loc 1 18 16
	mov	eax, 0
	call	compiler_directive@PLT
	mov	QWORD PTR -96[rbp], rax
	.loc 1 19 10
	mov	rax, QWORD PTR -96[rbp]
	jmp	.L3
.L4:
.LBE3:
	.loc 1 23 10
	mov	rax, QWORD PTR token[rip]
	mov	eax, DWORD PTR [rax]
	.loc 1 23 4
	cmp	eax, 14
	jne	.L5
.LBB4:
	.loc 1 24 3
	lea	rdi, .LC2[rip]
	call	consume@PLT
	.loc 1 25 16
	mov	esi, 72
	mov	edi, 1
	call	calloc@PLT
	mov	QWORD PTR -64[rbp], rax
	.loc 1 26 14
	mov	rax, QWORD PTR -64[rbp]
	mov	DWORD PTR [rax], 26
	.loc 1 27 16
	mov	esi, 48
	mov	edi, 1
	call	calloc@PLT
	mov	rdx, rax
	.loc 1 27 14
	mov	rax, QWORD PTR -64[rbp]
	mov	QWORD PTR 40[rax], rdx
	.loc 1 28 7
	mov	rax, QWORD PTR -64[rbp]
	mov	rax, QWORD PTR 40[rax]
	.loc 1 28 18
	mov	DWORD PTR [rax], 4
	.loc 1 30 16
	call	consume_string@PLT
	mov	QWORD PTR -72[rbp], rax
	.loc 1 31 15
	mov	rax, QWORD PTR -72[rbp]
	mov	rdi, rax
	call	find_string@PLT
	mov	QWORD PTR -80[rbp], rax
	.loc 1 34 5
	cmp	QWORD PTR -80[rbp], 0
	je	.L6
	.loc 1 35 20
	mov	rax, QWORD PTR -80[rbp]
	mov	rdx, QWORD PTR 8[rax]
	.loc 1 35 14
	mov	rax, QWORD PTR -64[rbp]
	mov	QWORD PTR 56[rax], rdx
	.loc 1 36 20
	mov	rax, QWORD PTR -80[rbp]
	mov	edx, DWORD PTR 4[rax]
	.loc 1 36 14
	mov	rax, QWORD PTR -64[rbp]
	mov	DWORD PTR 48[rax], edx
	.loc 1 37 23
	mov	rax, QWORD PTR -80[rbp]
	mov	edx, DWORD PTR [rax]
	.loc 1 37 17
	mov	rax, QWORD PTR -64[rbp]
	mov	DWORD PTR 64[rax], edx
	jmp	.L7
.L6:
.LBB5:
	.loc 1 40 15
	mov	esi, 24
	mov	edi, 1
	call	calloc@PLT
	mov	QWORD PTR -88[rbp], rax
	.loc 1 41 18
	mov	rax, QWORD PTR -72[rbp]
	mov	edx, DWORD PTR 32[rax]
	.loc 1 41 13
	mov	rax, QWORD PTR -88[rbp]
	mov	DWORD PTR [rax], edx
	.loc 1 42 18
	mov	rax, QWORD PTR -72[rbp]
	mov	rdx, QWORD PTR 24[rax]
	.loc 1 42 13
	mov	rax, QWORD PTR -88[rbp]
	mov	QWORD PTR 8[rax], rdx
	.loc 1 43 29
	mov	rax, QWORD PTR strings[rip]
	.loc 1 43 52
	test	rax, rax
	je	.L8
	.loc 1 43 38 discriminator 1
	mov	rax, QWORD PTR strings[rip]
	mov	eax, DWORD PTR 4[rax]
	.loc 1 43 52 discriminator 1
	lea	edx, 1[rax]
	jmp	.L9
.L8:
	.loc 1 43 52 is_stmt 0 discriminator 2
	mov	edx, 0
.L9:
	.loc 1 43 19 is_stmt 1 discriminator 4
	mov	rax, QWORD PTR -88[rbp]
	mov	DWORD PTR 4[rax], edx
	.loc 1 44 19 discriminator 4
	mov	rax, QWORD PTR -88[rbp]
	mov	rdx, QWORD PTR 8[rax]
	.loc 1 44 14 discriminator 4
	mov	rax, QWORD PTR -64[rbp]
	mov	QWORD PTR 56[rax], rdx
	.loc 1 45 22 discriminator 4
	mov	rax, QWORD PTR -88[rbp]
	mov	edx, DWORD PTR [rax]
	.loc 1 45 17 discriminator 4
	mov	rax, QWORD PTR -64[rbp]
	mov	DWORD PTR 64[rax], edx
	.loc 1 46 19 discriminator 4
	mov	rax, QWORD PTR -88[rbp]
	mov	edx, DWORD PTR 4[rax]
	.loc 1 46 14 discriminator 4
	mov	rax, QWORD PTR -64[rbp]
	mov	DWORD PTR 48[rax], edx
	.loc 1 48 15 discriminator 4
	mov	rax, QWORD PTR strings[rip]
	.loc 1 48 6 discriminator 4
	test	rax, rax
	jne	.L10
	.loc 1 49 13
	mov	rax, QWORD PTR -88[rbp]
	mov	QWORD PTR strings[rip], rax
	jmp	.L7
.L10:
	.loc 1 51 15
	mov	rdx, QWORD PTR strings[rip]
	mov	rax, QWORD PTR -88[rbp]
	mov	QWORD PTR 16[rax], rdx
	.loc 1 52 13
	mov	rax, QWORD PTR -88[rbp]
	mov	QWORD PTR strings[rip], rax
.L7:
.LBE5:
	.loc 1 56 10
	mov	rax, QWORD PTR -64[rbp]
	jmp	.L3
.L5:
.LBE4:
	.loc 1 60 6
	mov	DWORD PTR -12[rbp], 0
	.loc 1 61 15
	call	consume_ident@PLT
	mov	QWORD PTR -24[rbp], rax
	.loc 1 62 4
	cmp	QWORD PTR -24[rbp], 0
	je	.L11
.LBB6:
	.loc 1 63 16
	mov	esi, 72
	mov	edi, 1
	call	calloc@PLT
	mov	QWORD PTR -8[rbp], rax
	.loc 1 65 16
	mov	edx, DWORD PTR -12[rbp]
	mov	rax, QWORD PTR -24[rbp]
	mov	esi, edx
	mov	rdi, rax
	call	find_lvar@PLT
	mov	QWORD PTR -32[rbp], rax
	.loc 1 66 5
	cmp	QWORD PTR -32[rbp], 0
	je	.L12
	.loc 1 67 24
	mov	rax, QWORD PTR -32[rbp]
	mov	rax, QWORD PTR 16[rax]
	.loc 1 67 30
	mov	eax, DWORD PTR [rax]
	.loc 1 67 56
	cmp	eax, 5
	jne	.L13
	.loc 1 67 56 is_stmt 0 discriminator 1
	mov	edx, 24
	jmp	.L14
.L13:
	.loc 1 67 56 discriminator 2
	mov	edx, 22
.L14:
	.loc 1 67 17 is_stmt 1 discriminator 4
	mov	rax, QWORD PTR -8[rbp]
	mov	DWORD PTR [rax], edx
	.loc 1 68 23 discriminator 4
	mov	rax, QWORD PTR -32[rbp]
	mov	edx, DWORD PTR 4[rax]
	.loc 1 68 17 discriminator 4
	mov	rax, QWORD PTR -8[rbp]
	mov	DWORD PTR 64[rax], edx
	.loc 1 69 23 discriminator 4
	mov	rax, QWORD PTR -32[rbp]
	mov	rdx, QWORD PTR 16[rax]
	.loc 1 69 17 discriminator 4
	mov	rax, QWORD PTR -8[rbp]
	mov	QWORD PTR 40[rax], rdx
	jmp	.L15
.L12:
	.loc 1 71 12
	lea	rdi, .LC0[rip]
	call	check@PLT
	.loc 1 71 11
	test	al, al
	je	.L16
.LBB7:
	.loc 1 72 19
	mov	rax, QWORD PTR -24[rbp]
	mov	rdi, rax
	call	find_func@PLT
	mov	QWORD PTR -56[rbp], rax
	.loc 1 73 6
	cmp	QWORD PTR -56[rbp], 0
	je	.L17
	.loc 1 74 24
	mov	rax, QWORD PTR -56[rbp]
	mov	rdx, QWORD PTR 16[rax]
	.loc 1 74 16
	mov	rax, QWORD PTR -8[rbp]
	mov	QWORD PTR 40[rax], rdx
	jmp	.L18
.L17:
	.loc 1 76 18
	mov	esi, 48
	mov	edi, 1
	call	calloc@PLT
	mov	rdx, rax
	.loc 1 76 16
	mov	rax, QWORD PTR -8[rbp]
	mov	QWORD PTR 40[rax], rdx
	.loc 1 77 9
	mov	rax, QWORD PTR -8[rbp]
	mov	rax, QWORD PTR 40[rax]
	.loc 1 77 20
	mov	DWORD PTR [rax], 3
.L18:
	.loc 1 80 11
	mov	rdx, QWORD PTR -24[rbp]
	mov	rax, QWORD PTR -8[rbp]
	mov	rsi, rdx
	mov	rdi, rax
	call	call_function@PLT
	mov	QWORD PTR -8[rbp], rax
.LBE7:
	jmp	.L15
.L16:
.LBB8:
	.loc 1 82 17
	mov	rax, QWORD PTR -24[rbp]
	mov	rdi, rax
	call	find_gvar@PLT
	mov	QWORD PTR -40[rbp], rax
	.loc 1 83 6
	cmp	QWORD PTR -40[rbp], 0
	je	.L19
	.loc 1 85 23
	mov	rax, QWORD PTR -40[rbp]
	mov	rax, QWORD PTR 16[rax]
	.loc 1 85 29
	mov	eax, DWORD PTR [rax]
	.loc 1 85 55
	cmp	eax, 5
	jne	.L20
	.loc 1 85 55 is_stmt 0 discriminator 1
	mov	edx, 25
	jmp	.L21
.L20:
	.loc 1 85 55 discriminator 2
	mov	edx, 23
.L21:
	.loc 1 85 16 is_stmt 1 discriminator 4
	mov	rax, QWORD PTR -8[rbp]
	mov	DWORD PTR [rax], edx
	.loc 1 86 22 discriminator 4
	mov	rax, QWORD PTR -40[rbp]
	mov	rdx, QWORD PTR 16[rax]
	.loc 1 86 16 discriminator 4
	mov	rax, QWORD PTR -8[rbp]
	mov	QWORD PTR 40[rax], rdx
	.loc 1 87 21 discriminator 4
	mov	rax, QWORD PTR -24[rbp]
	mov	rdx, QWORD PTR 24[rax]
	.loc 1 87 16 discriminator 4
	mov	rax, QWORD PTR -8[rbp]
	mov	QWORD PTR 56[rax], rdx
	.loc 1 88 21 discriminator 4
	mov	rax, QWORD PTR -24[rbp]
	mov	edx, DWORD PTR 32[rax]
	.loc 1 88 16 discriminator 4
	mov	rax, QWORD PTR -8[rbp]
	mov	DWORD PTR 48[rax], edx
	jmp	.L15
.L19:
.LBB9:
	.loc 1 90 21
	mov	edx, DWORD PTR -12[rbp]
	mov	rax, QWORD PTR -24[rbp]
	mov	esi, edx
	mov	rdi, rax
	call	find_enumerator@PLT
	mov	QWORD PTR -48[rbp], rax
	.loc 1 91 7
	cmp	QWORD PTR -48[rbp], 0
	je	.L22
	.loc 1 92 13
	mov	rax, QWORD PTR -48[rbp]
	mov	eax, DWORD PTR 4[rax]
	mov	edi, eax
	call	new_node_num@PLT
	mov	QWORD PTR -8[rbp], rax
	jmp	.L15
.L22:
	.loc 1 95 20
	mov	rax, QWORD PTR token[rip]
	.loc 1 95 6
	mov	rax, QWORD PTR 24[rax]
	lea	rsi, .LC3[rip]
	mov	rdi, rax
	call	error_at@PLT
.L15:
.LBE9:
.LBE8:
	.loc 1 100 10
	mov	rax, QWORD PTR -8[rbp]
	jmp	.L3
.L11:
.LBE6:
	.loc 1 102 16
	mov	rax, QWORD PTR token[rip]
	mov	eax, DWORD PTR [rax]
	.loc 1 102 10
	cmp	eax, 3
	jne	.L23
	.loc 1 103 10
	call	expect_number@PLT
	mov	edi, eax
	call	new_node_num@PLT
	jmp	.L3
.L23:
	.loc 1 108 9
	mov	edx, 0
	mov	esi, 0
	mov	edi, 32
	call	new_node@PLT
.L3:
	.loc 1 109 1
	leave
	.cfi_def_cfa 7, 8
	ret
	.cfi_endproc
.LFE0:
	.size	data, .-data
	.section	.rodata
.LC4:
	.string	"]"
.LC5:
	.string	"["
.LC6:
	.string	"++"
.LC7:
	.string	"--"
.LC8:
	.string	"."
.LC9:
	.string	"->"
	.text
	.globl	primary
	.type	primary, @function
primary:
.LFB1:
	.loc 1 111 20
	.cfi_startproc
	push	rbp
	.cfi_def_cfa_offset 16
	.cfi_offset 6, -16
	mov	rbp, rsp
	.cfi_def_cfa_register 6
	sub	rsp, 16
	.loc 1 112 15
	call	data
	mov	QWORD PTR -8[rbp], rax
	.loc 1 115 7
	jmp	.L25
.L26:
	.loc 1 116 10
	call	add
	mov	rdx, rax
	mov	rax, QWORD PTR -8[rbp]
	mov	rsi, rdx
	mov	rdi, rax
	call	array_index@PLT
	mov	QWORD PTR -8[rbp], rax
	.loc 1 117 3
	lea	rdi, .LC4[rip]
	call	expect@PLT
.L25:
	.loc 1 115 8
	lea	rdi, .LC5[rip]
	call	consume@PLT
	.loc 1 115 7
	test	al, al
	jne	.L26
	.loc 1 121 5
	lea	rdi, .LC6[rip]
	call	consume@PLT
	.loc 1 121 4
	test	al, al
	je	.L27
	.loc 1 122 10
	mov	rax, QWORD PTR -8[rbp]
	mov	esi, 2
	mov	rdi, rax
	call	incdec@PLT
	mov	QWORD PTR -8[rbp], rax
.L27:
	.loc 1 126 5
	lea	rdi, .LC7[rip]
	call	consume@PLT
	.loc 1 126 4
	test	al, al
	je	.L29
	.loc 1 127 10
	mov	rax, QWORD PTR -8[rbp]
	mov	esi, 3
	mov	rdi, rax
	call	incdec@PLT
	mov	QWORD PTR -8[rbp], rax
	.loc 1 131 7
	jmp	.L29
.L35:
	.loc 1 133 6
	lea	rdi, .LC8[rip]
	call	consume@PLT
	.loc 1 133 5
	test	al, al
	je	.L30
	.loc 1 134 11
	mov	rax, QWORD PTR -8[rbp]
	mov	eax, DWORD PTR [rax]
	.loc 1 134 6
	cmp	eax, 22
	jne	.L31
	.loc 1 135 12
	mov	rax, QWORD PTR -8[rbp]
	mov	rdx, rax
	mov	esi, 0
	mov	edi, 20
	call	new_node@PLT
	mov	QWORD PTR -8[rbp], rax
.L31:
	.loc 1 137 11
	mov	rax, QWORD PTR -8[rbp]
	mov	rsi, rax
	mov	edi, 16
	call	dot_arrow@PLT
	mov	QWORD PTR -8[rbp], rax
.L30:
	.loc 1 141 6
	lea	rdi, .LC9[rip]
	call	consume@PLT
	.loc 1 141 5
	test	al, al
	je	.L33
	.loc 1 142 11
	mov	rax, QWORD PTR -8[rbp]
	mov	rsi, rax
	mov	edi, 17
	call	dot_arrow@PLT
	mov	QWORD PTR -8[rbp], rax
	.loc 1 146 8
	jmp	.L33
.L34:
	.loc 1 147 11
	call	mul
	mov	rdx, rax
	mov	rax, QWORD PTR -8[rbp]
	mov	rsi, rdx
	mov	rdi, rax
	call	array_index@PLT
	mov	QWORD PTR -8[rbp], rax
	.loc 1 148 4
	lea	rdi, .LC4[rip]
	call	expect@PLT
.L33:
	.loc 1 146 9
	lea	rdi, .LC5[rip]
	call	consume@PLT
	.loc 1 146 8
	test	al, al
	jne	.L34
.L29:
	.loc 1 131 8
	lea	rdi, .LC8[rip]
	call	check@PLT
	.loc 1 131 7
	test	al, al
	jne	.L35
	.loc 1 131 22 discriminator 1
	lea	rdi, .LC9[rip]
	call	check@PLT
	.loc 1 131 19 discriminator 1
	test	al, al
	jne	.L35
	.loc 1 152 9
	mov	rax, QWORD PTR -8[rbp]
	.loc 1 153 1
	leave
	.cfi_def_cfa 7, 8
	ret
	.cfi_endproc
.LFE1:
	.size	primary, .-primary
	.section	.rodata
.LC10:
	.string	"!"
.LC11:
	.string	"*"
.LC12:
	.string	"&"
.LC13:
	.string	"+"
.LC14:
	.string	"-"
.LC15:
	.string	"sizeof"
	.text
	.globl	unary
	.type	unary, @function
unary:
.LFB2:
	.loc 1 155 18
	.cfi_startproc
	push	rbp
	.cfi_def_cfa_offset 16
	.cfi_offset 6, -16
	mov	rbp, rsp
	.cfi_def_cfa_register 6
	push	rbx
	sub	rsp, 40
	.cfi_offset 3, -24
	.loc 1 156 8
	mov	QWORD PTR -24[rbp], 0
	.loc 1 159 5
	lea	rdi, .LC10[rip]
	call	consume@PLT
	.loc 1 159 4
	test	al, al
	je	.L38
	.loc 1 160 10
	call	logical
	mov	rdx, rax
	mov	esi, 0
	mov	edi, 19
	call	new_node@PLT
	mov	QWORD PTR -24[rbp], rax
	.loc 1 161 10
	mov	rax, QWORD PTR -24[rbp]
	jmp	.L39
.L38:
	.loc 1 164 5
	lea	rdi, .LC11[rip]
	call	consume@PLT
	.loc 1 164 4
	test	al, al
	je	.L40
	.loc 1 165 10
	call	unary
	mov	rdx, rax
	mov	esi, 0
	mov	edi, 21
	call	new_node@PLT
	mov	QWORD PTR -24[rbp], rax
	.loc 1 167 10
	mov	rax, QWORD PTR -24[rbp]
	jmp	.L39
.L40:
	.loc 1 170 5
	lea	rdi, .LC12[rip]
	call	consume@PLT
	.loc 1 170 4
	test	al, al
	je	.L41
	.loc 1 171 10
	call	unary
	mov	rdx, rax
	mov	esi, 0
	mov	edi, 20
	call	new_node@PLT
	mov	QWORD PTR -24[rbp], rax
	.loc 1 173 10
	mov	rax, QWORD PTR -24[rbp]
	jmp	.L39
.L41:
	.loc 1 176 5
	lea	rdi, .LC13[rip]
	call	consume@PLT
	.loc 1 176 4
	test	al, al
	je	.L42
	.loc 1 178 10
	call	primary
	jmp	.L39
.L42:
	.loc 1 181 5
	lea	rdi, .LC14[rip]
	call	consume@PLT
	.loc 1 181 4
	test	al, al
	je	.L43
	.loc 1 183 10
	call	primary
	mov	rbx, rax
	mov	edi, 0
	call	new_node_num@PLT
	mov	rdx, rbx
	mov	rsi, rax
	mov	edi, 1
	call	new_node@PLT
	jmp	.L39
.L43:
	.loc 1 187 5
	lea	rdi, .LC6[rip]
	call	consume@PLT
	.loc 1 187 4
	test	al, al
	je	.L44
	.loc 1 188 10
	call	primary
	mov	esi, 0
	mov	rdi, rax
	call	incdec@PLT
	jmp	.L39
.L44:
	.loc 1 192 5
	lea	rdi, .LC7[rip]
	call	consume@PLT
	.loc 1 192 4
	test	al, al
	je	.L45
	.loc 1 193 10
	call	primary
	mov	esi, 1
	mov	rdi, rax
	call	incdec@PLT
	jmp	.L39
.L45:
	.loc 1 196 5
	mov	esi, 12
	lea	rdi, .LC15[rip]
	call	consume_reserved_word@PLT
	.loc 1 196 4
	test	al, al
	je	.L46
	.loc 1 200 6
	lea	rdi, .LC0[rip]
	call	consume@PLT
	.loc 1 200 5
	test	al, al
	je	.L47
.LBB10:
	.loc 1 201 8
	mov	DWORD PTR -28[rbp], 0
	.loc 1 202 12
	mov	rax, QWORD PTR token[rip]
	mov	eax, DWORD PTR [rax]
	.loc 1 202 6
	test	eax, eax
	je	.L48
	.loc 1 202 33 discriminator 1
	mov	rax, QWORD PTR token[rip]
	mov	edx, DWORD PTR -28[rbp]
	mov	esi, edx
	mov	rdi, rax
	call	find_defined_type@PLT
	.loc 1 202 30 discriminator 1
	test	rax, rax
	je	.L49
.L48:
.LBB11:
	.loc 1 203 25
	call	parse_type@PLT
	mov	QWORD PTR -48[rbp], rax
	.loc 1 204 12
	mov	rax, QWORD PTR -48[rbp]
	mov	eax, DWORD PTR 16[rax]
	mov	edi, eax
	call	new_node_num@PLT
	mov	rdx, rax
	mov	rax, QWORD PTR -24[rbp]
	mov	rsi, rax
	mov	edi, 27
	call	new_node@PLT
	mov	QWORD PTR -24[rbp], rax
	.loc 1 205 28
	mov	rax, QWORD PTR -48[rbp]
	mov	edx, DWORD PTR 16[rax]
	.loc 1 205 15
	mov	rax, QWORD PTR -24[rbp]
	mov	DWORD PTR 48[rax], edx
.LBE11:
	.loc 1 202 71
	jmp	.L50
.L49:
.LBB12:
	.loc 1 207 20
	call	expr
	mov	QWORD PTR -40[rbp], rax
	.loc 1 208 12
	mov	rdx, QWORD PTR -40[rbp]
	mov	rax, QWORD PTR -24[rbp]
	mov	rsi, rax
	mov	edi, 27
	call	new_node@PLT
	mov	QWORD PTR -24[rbp], rax
	.loc 1 209 21
	mov	rax, QWORD PTR -24[rbp]
	mov	rax, QWORD PTR 16[rax]
	.loc 1 209 26
	mov	rax, QWORD PTR 40[rax]
	.loc 1 209 32
	mov	edx, DWORD PTR 16[rax]
	.loc 1 209 15
	mov	rax, QWORD PTR -24[rbp]
	mov	DWORD PTR 48[rax], edx
.L50:
.LBE12:
	.loc 1 211 4
	lea	rdi, .LC1[rip]
	call	expect@PLT
.L47:
.LBE10:
	.loc 1 214 10
	mov	rax, QWORD PTR -24[rbp]
	jmp	.L39
.L46:
	.loc 1 217 9
	call	primary
.L39:
	.loc 1 218 1
	add	rsp, 40
	pop	rbx
	pop	rbp
	.cfi_def_cfa 7, 8
	ret
	.cfi_endproc
.LFE2:
	.size	unary, .-unary
	.section	.rodata
.LC16:
	.string	"/"
.LC17:
	.string	"%"
	.text
	.globl	mul
	.type	mul, @function
mul:
.LFB3:
	.loc 1 220 16
	.cfi_startproc
	push	rbp
	.cfi_def_cfa_offset 16
	.cfi_offset 6, -16
	mov	rbp, rsp
	.cfi_def_cfa_register 6
	sub	rsp, 16
	.loc 1 222 15
	call	unary
	mov	QWORD PTR -8[rbp], rax
.L57:
	.loc 1 226 6
	lea	rdi, .LC11[rip]
	call	consume@PLT
	.loc 1 226 5
	test	al, al
	je	.L52
	.loc 1 228 11
	call	unary
	mov	rdx, rax
	mov	rax, QWORD PTR -8[rbp]
	mov	rsi, rax
	mov	edi, 2
	call	new_node@PLT
	mov	QWORD PTR -8[rbp], rax
	jmp	.L57
.L52:
	.loc 1 229 12
	lea	rdi, .LC16[rip]
	call	consume@PLT
	.loc 1 229 11
	test	al, al
	je	.L54
	.loc 1 230 11
	call	unary
	mov	rdx, rax
	mov	rax, QWORD PTR -8[rbp]
	mov	rsi, rax
	mov	edi, 3
	call	new_node@PLT
	mov	QWORD PTR -8[rbp], rax
	jmp	.L57
.L54:
	.loc 1 231 12
	lea	rdi, .LC17[rip]
	call	consume@PLT
	.loc 1 231 11
	test	al, al
	je	.L55
	.loc 1 232 11
	call	unary
	mov	rdx, rax
	mov	rax, QWORD PTR -8[rbp]
	mov	rsi, rax
	mov	edi, 4
	call	new_node@PLT
	mov	QWORD PTR -8[rbp], rax
	jmp	.L57
.L55:
	.loc 1 234 11
	mov	rax, QWORD PTR -8[rbp]
	.loc 1 237 1
	leave
	.cfi_def_cfa 7, 8
	ret
	.cfi_endproc
.LFE3:
	.size	mul, .-mul
	.globl	add
	.type	add, @function
add:
.LFB4:
	.loc 1 239 16
	.cfi_startproc
	push	rbp
	.cfi_def_cfa_offset 16
	.cfi_offset 6, -16
	mov	rbp, rsp
	.cfi_def_cfa_register 6
	sub	rsp, 16
	.loc 1 241 15
	call	mul
	mov	QWORD PTR -8[rbp], rax
.L64:
	.loc 1 244 6
	lea	rdi, .LC13[rip]
	call	consume@PLT
	.loc 1 244 5
	test	al, al
	je	.L60
	.loc 1 245 11
	call	mul
	mov	rdx, rax
	mov	rax, QWORD PTR -8[rbp]
	mov	rsi, rax
	mov	edi, 0
	call	new_node@PLT
	mov	QWORD PTR -8[rbp], rax
	jmp	.L64
.L60:
	.loc 1 246 12
	lea	rdi, .LC14[rip]
	call	consume@PLT
	.loc 1 246 11
	test	al, al
	je	.L62
	.loc 1 247 11
	call	mul
	mov	rdx, rax
	mov	rax, QWORD PTR -8[rbp]
	mov	rsi, rax
	mov	edi, 1
	call	new_node@PLT
	mov	QWORD PTR -8[rbp], rax
	jmp	.L64
.L62:
	.loc 1 249 11
	mov	rax, QWORD PTR -8[rbp]
	.loc 1 252 1
	leave
	.cfi_def_cfa 7, 8
	ret
	.cfi_endproc
.LFE4:
	.size	add, .-add
	.section	.rodata
.LC18:
	.string	">="
.LC19:
	.string	"<="
.LC20:
	.string	">"
.LC21:
	.string	"<"
	.text
	.globl	relational
	.type	relational, @function
relational:
.LFB5:
	.loc 1 254 23
	.cfi_startproc
	push	rbp
	.cfi_def_cfa_offset 16
	.cfi_offset 6, -16
	mov	rbp, rsp
	.cfi_def_cfa_register 6
	sub	rsp, 16
	.loc 1 255 15
	call	add
	mov	QWORD PTR -8[rbp], rax
.L73:
	.loc 1 259 6
	lea	rdi, .LC18[rip]
	call	consume@PLT
	.loc 1 259 5
	test	al, al
	je	.L67
	.loc 1 260 11
	call	add
	mov	rdx, rax
	mov	rax, QWORD PTR -8[rbp]
	mov	rsi, rax
	mov	edi, 6
	call	new_node@PLT
	mov	QWORD PTR -8[rbp], rax
	jmp	.L73
.L67:
	.loc 1 261 12
	lea	rdi, .LC19[rip]
	call	consume@PLT
	.loc 1 261 11
	test	al, al
	je	.L69
	.loc 1 262 11
	call	add
	mov	rdx, rax
	mov	rax, QWORD PTR -8[rbp]
	mov	rsi, rax
	mov	edi, 8
	call	new_node@PLT
	mov	QWORD PTR -8[rbp], rax
	jmp	.L73
.L69:
	.loc 1 263 12
	lea	rdi, .LC20[rip]
	call	consume@PLT
	.loc 1 263 11
	test	al, al
	je	.L70
	.loc 1 264 11
	call	add
	mov	rdx, rax
	mov	rax, QWORD PTR -8[rbp]
	mov	rsi, rax
	mov	edi, 5
	call	new_node@PLT
	mov	QWORD PTR -8[rbp], rax
	jmp	.L73
.L70:
	.loc 1 265 12
	lea	rdi, .LC21[rip]
	call	consume@PLT
	.loc 1 265 11
	test	al, al
	je	.L71
	.loc 1 266 11
	call	add
	mov	rdx, rax
	mov	rax, QWORD PTR -8[rbp]
	mov	rsi, rax
	mov	edi, 7
	call	new_node@PLT
	mov	QWORD PTR -8[rbp], rax
	jmp	.L73
.L71:
	.loc 1 268 11
	mov	rax, QWORD PTR -8[rbp]
	.loc 1 271 1
	leave
	.cfi_def_cfa 7, 8
	ret
	.cfi_endproc
.LFE5:
	.size	relational, .-relational
	.section	.rodata
.LC22:
	.string	"=="
.LC23:
	.string	"!="
	.text
	.globl	equelity
	.type	equelity, @function
equelity:
.LFB6:
	.loc 1 273 21
	.cfi_startproc
	push	rbp
	.cfi_def_cfa_offset 16
	.cfi_offset 6, -16
	mov	rbp, rsp
	.cfi_def_cfa_register 6
	sub	rsp, 16
	.loc 1 274 15
	call	relational
	mov	QWORD PTR -8[rbp], rax
.L80:
	.loc 1 277 6
	lea	rdi, .LC22[rip]
	call	consume@PLT
	.loc 1 277 5
	test	al, al
	je	.L76
	.loc 1 278 11
	call	relational
	mov	rdx, rax
	mov	rax, QWORD PTR -8[rbp]
	mov	rsi, rax
	mov	edi, 9
	call	new_node@PLT
	mov	QWORD PTR -8[rbp], rax
	jmp	.L80
.L76:
	.loc 1 279 12
	lea	rdi, .LC23[rip]
	call	consume@PLT
	.loc 1 279 11
	test	al, al
	je	.L78
	.loc 1 280 11
	call	relational
	mov	rdx, rax
	mov	rax, QWORD PTR -8[rbp]
	mov	rsi, rax
	mov	edi, 10
	call	new_node@PLT
	mov	QWORD PTR -8[rbp], rax
	jmp	.L80
.L78:
	.loc 1 282 11
	mov	rax, QWORD PTR -8[rbp]
	.loc 1 285 1
	leave
	.cfi_def_cfa 7, 8
	ret
	.cfi_endproc
.LFE6:
	.size	equelity, .-equelity
	.section	.rodata
.LC24:
	.string	"&&"
.LC25:
	.string	"||"
	.text
	.globl	logical
	.type	logical, @function
logical:
.LFB7:
	.loc 1 287 20
	.cfi_startproc
	push	rbp
	.cfi_def_cfa_offset 16
	.cfi_offset 6, -16
	mov	rbp, rsp
	.cfi_def_cfa_register 6
	sub	rsp, 16
	.loc 1 288 15
	call	equelity
	mov	QWORD PTR -8[rbp], rax
.L87:
	.loc 1 290 6
	lea	rdi, .LC24[rip]
	call	consume@PLT
	.loc 1 290 5
	test	al, al
	je	.L83
	.loc 1 291 11
	call	equelity
	mov	rdx, rax
	mov	rax, QWORD PTR -8[rbp]
	mov	rsi, rax
	mov	edi, 11
	call	new_node@PLT
	mov	QWORD PTR -8[rbp], rax
	jmp	.L87
.L83:
	.loc 1 292 12
	lea	rdi, .LC25[rip]
	call	consume@PLT
	.loc 1 292 11
	test	al, al
	je	.L85
	.loc 1 293 11
	call	equelity
	mov	rdx, rax
	mov	rax, QWORD PTR -8[rbp]
	mov	rsi, rax
	mov	edi, 12
	call	new_node@PLT
	mov	QWORD PTR -8[rbp], rax
	jmp	.L87
.L85:
	.loc 1 295 11
	mov	rax, QWORD PTR -8[rbp]
	.loc 1 298 1
	leave
	.cfi_def_cfa 7, 8
	ret
	.cfi_endproc
.LFE7:
	.size	logical, .-logical
	.section	.rodata
.LC26:
	.string	"?"
.LC27:
	.string	":"
	.text
	.globl	ternary
	.type	ternary, @function
ternary:
.LFB8:
	.loc 1 300 20
	.cfi_startproc
	push	rbp
	.cfi_def_cfa_offset 16
	.cfi_offset 6, -16
	mov	rbp, rsp
	.cfi_def_cfa_register 6
	sub	rsp, 16
	.loc 1 301 15
	call	logical
	mov	QWORD PTR -8[rbp], rax
	.loc 1 302 5
	lea	rdi, .LC26[rip]
	call	consume@PLT
	.loc 1 302 4
	test	al, al
	je	.L90
	.loc 1 304 15
	call	ternary
	mov	rdx, rax
	mov	rax, QWORD PTR -8[rbp]
	mov	rsi, rax
	mov	edi, 30
	call	new_node@PLT
	mov	QWORD PTR -8[rbp], rax
	.loc 1 305 24
	mov	eax, DWORD PTR label_num[rip]
	lea	edx, 1[rax]
	mov	DWORD PTR label_num[rip], edx
	.loc 1 305 13
	mov	rdx, QWORD PTR -8[rbp]
	mov	DWORD PTR 48[rdx], eax
	.loc 1 306 3
	lea	rdi, .LC27[rip]
	call	expect@PLT
	.loc 1 308 16
	call	ternary
	.loc 1 308 14
	mov	rdx, QWORD PTR -8[rbp]
	mov	QWORD PTR 24[rdx], rax
.L90:
	.loc 1 311 9
	mov	rax, QWORD PTR -8[rbp]
	.loc 1 312 1
	leave
	.cfi_def_cfa 7, 8
	ret
	.cfi_endproc
.LFE8:
	.size	ternary, .-ternary
	.section	.rodata
.LC28:
	.string	"="
.LC29:
	.string	"+="
.LC30:
	.string	"-="
.LC31:
	.string	"*="
.LC32:
	.string	"/="
	.text
	.globl	assign
	.type	assign, @function
assign:
.LFB9:
	.loc 1 314 19
	.cfi_startproc
	push	rbp
	.cfi_def_cfa_offset 16
	.cfi_offset 6, -16
	mov	rbp, rsp
	.cfi_def_cfa_register 6
	sub	rsp, 16
	.loc 1 315 15
	call	ternary
	mov	QWORD PTR -8[rbp], rax
	.loc 1 317 5
	lea	rdi, .LC28[rip]
	call	consume@PLT
	.loc 1 317 4
	test	al, al
	je	.L93
	.loc 1 318 10
	call	assign
	mov	rdx, rax
	mov	rax, QWORD PTR -8[rbp]
	mov	rsi, rax
	mov	edi, 13
	call	new_node@PLT
	mov	QWORD PTR -8[rbp], rax
	jmp	.L94
.L93:
	.loc 1 319 11
	lea	rdi, .LC29[rip]
	call	consume@PLT
	.loc 1 319 10
	test	al, al
	je	.L95
	.loc 1 320 10
	call	assign
	mov	rdx, rax
	mov	rax, QWORD PTR -8[rbp]
	mov	rsi, rax
	mov	edi, 0
	call	compound_assign@PLT
	mov	QWORD PTR -8[rbp], rax
	jmp	.L94
.L95:
	.loc 1 321 11
	lea	rdi, .LC30[rip]
	call	consume@PLT
	.loc 1 321 10
	test	al, al
	je	.L96
	.loc 1 322 10
	call	assign
	mov	rdx, rax
	mov	rax, QWORD PTR -8[rbp]
	mov	rsi, rax
	mov	edi, 1
	call	compound_assign@PLT
	mov	QWORD PTR -8[rbp], rax
	jmp	.L94
.L96:
	.loc 1 323 11
	lea	rdi, .LC31[rip]
	call	consume@PLT
	.loc 1 323 10
	test	al, al
	je	.L97
	.loc 1 324 10
	call	assign
	mov	rdx, rax
	mov	rax, QWORD PTR -8[rbp]
	mov	rsi, rax
	mov	edi, 2
	call	compound_assign@PLT
	mov	QWORD PTR -8[rbp], rax
	jmp	.L94
.L97:
	.loc 1 325 11
	lea	rdi, .LC32[rip]
	call	consume@PLT
	.loc 1 325 10
	test	al, al
	je	.L94
	.loc 1 326 10
	call	assign
	mov	rdx, rax
	mov	rax, QWORD PTR -8[rbp]
	mov	rsi, rax
	mov	edi, 3
	call	compound_assign@PLT
	mov	QWORD PTR -8[rbp], rax
.L94:
	.loc 1 330 9
	mov	rax, QWORD PTR -8[rbp]
	.loc 1 331 1
	leave
	.cfi_def_cfa 7, 8
	ret
	.cfi_endproc
.LFE9:
	.size	assign, .-assign
	.section	.rodata
.LC33:
	.string	";"
.LC34:
	.string	"not a variable."
.LC35:
	.string	"{"
.LC36:
	.string	"break"
.LC37:
	.string	"continue"
	.text
	.globl	expr
	.type	expr, @function
expr:
.LFB10:
	.loc 1 333 17
	.cfi_startproc
	push	rbp
	.cfi_def_cfa_offset 16
	.cfi_offset 6, -16
	mov	rbp, rsp
	.cfi_def_cfa_register 6
	sub	rsp, 32
	.loc 1 334 6
	mov	DWORD PTR -12[rbp], 0
	.loc 1 335 6
	mov	DWORD PTR -16[rbp], 1
	.loc 1 338 10
	mov	rax, QWORD PTR token[rip]
	mov	eax, DWORD PTR [rax]
	.loc 1 338 4
	test	eax, eax
	je	.L100
	.loc 1 338 31 discriminator 1
	mov	rax, QWORD PTR token[rip]
	mov	edx, DWORD PTR -16[rbp]
	mov	esi, edx
	mov	rdi, rax
	call	find_defined_type@PLT
	.loc 1 338 28 discriminator 1
	test	rax, rax
	je	.L101
.L100:
.LBB13:
	.loc 1 339 13
	mov	esi, 72
	mov	edi, 1
	call	calloc@PLT
	mov	QWORD PTR -8[rbp], rax
	.loc 1 340 14
	mov	rax, QWORD PTR -8[rbp]
	mov	DWORD PTR [rax], 22
	.loc 1 343 16
	call	parse_type@PLT
	.loc 1 343 14
	mov	rdx, QWORD PTR -8[rbp]
	mov	QWORD PTR 40[rdx], rax
	.loc 1 346 6
	lea	rdi, .LC33[rip]
	call	check@PLT
	.loc 1 346 5
	test	al, al
	je	.L102
	.loc 1 347 11
	mov	rax, QWORD PTR -8[rbp]
	jmp	.L103
.L102:
	.loc 1 351 16
	call	consume_ident@PLT
	mov	QWORD PTR -24[rbp], rax
	.loc 1 352 5
	cmp	QWORD PTR -24[rbp], 0
	je	.L104
.LBB14:
	.loc 1 353 8
	mov	DWORD PTR -28[rbp], 1
	.loc 1 355 4
	mov	edx, DWORD PTR -28[rbp]
	mov	rax, QWORD PTR -24[rbp]
	mov	esi, edx
	mov	rdi, rax
	call	find_enumerator@PLT
	.loc 1 356 11
	mov	edx, DWORD PTR -12[rbp]
	mov	rcx, QWORD PTR -24[rbp]
	mov	rax, QWORD PTR -8[rbp]
	mov	rsi, rcx
	mov	rdi, rax
	call	declare_local_variable@PLT
	mov	QWORD PTR -8[rbp], rax
.LBE14:
	jmp	.L105
.L104:
	.loc 1 358 18
	mov	rax, QWORD PTR token[rip]
	.loc 1 358 4
	mov	rax, QWORD PTR 24[rax]
	lea	rsi, .LC34[rip]
	mov	rdi, rax
	call	error_at@PLT
.L105:
	.loc 1 362 6
	lea	rdi, .LC28[rip]
	call	consume@PLT
	.loc 1 362 5
	test	al, al
	je	.L111
	.loc 1 363 7
	lea	rdi, .LC35[rip]
	call	consume@PLT
	.loc 1 363 6
	test	al, al
	je	.L107
	.loc 1 364 12
	mov	rax, QWORD PTR -8[rbp]
	mov	rdi, rax
	call	array_block@PLT
	mov	QWORD PTR -8[rbp], rax
.LBE13:
	.loc 1 338 70
	jmp	.L111
.L107:
.LBB15:
	.loc 1 366 12
	call	assign
	mov	rdx, rax
	mov	rax, QWORD PTR -8[rbp]
	mov	rsi, rdx
	mov	rdi, rax
	call	init_formula@PLT
	mov	QWORD PTR -8[rbp], rax
.LBE15:
	.loc 1 338 70
	jmp	.L111
.L101:
	.loc 1 369 11
	mov	esi, 15
	lea	rdi, .LC36[rip]
	call	consume_reserved_word@PLT
	.loc 1 369 10
	test	al, al
	je	.L109
	.loc 1 370 13
	mov	esi, 72
	mov	edi, 1
	call	calloc@PLT
	mov	QWORD PTR -8[rbp], rax
	.loc 1 371 14
	mov	rax, QWORD PTR -8[rbp]
	mov	DWORD PTR [rax], 40
	.loc 1 372 14
	mov	edx, DWORD PTR label_loop_end[rip]
	mov	rax, QWORD PTR -8[rbp]
	mov	DWORD PTR 48[rax], edx
	jmp	.L108
.L109:
	.loc 1 373 11
	mov	esi, 16
	lea	rdi, .LC37[rip]
	call	consume_reserved_word@PLT
	.loc 1 373 10
	test	al, al
	je	.L110
	.loc 1 374 13
	mov	esi, 72
	mov	edi, 1
	call	calloc@PLT
	mov	QWORD PTR -8[rbp], rax
	.loc 1 375 14
	mov	rax, QWORD PTR -8[rbp]
	mov	DWORD PTR [rax], 41
	.loc 1 376 14
	mov	edx, DWORD PTR label_loop_end[rip]
	mov	rax, QWORD PTR -8[rbp]
	mov	DWORD PTR 48[rax], edx
	jmp	.L108
.L110:
	.loc 1 378 10
	call	assign
	mov	QWORD PTR -8[rbp], rax
	jmp	.L108
.L111:
	.loc 1 338 70
	nop
.L108:
	.loc 1 381 9
	mov	rax, QWORD PTR -8[rbp]
.L103:
	.loc 1 382 1
	leave
	.cfi_def_cfa 7, 8
	ret
	.cfi_endproc
.LFE10:
	.size	expr, .-expr
	.section	.rodata
.LC38:
	.string	"return"
.LC39:
	.string	"not a ';' token."
.LC40:
	.string	"if"
.LC41:
	.string	"else"
.LC42:
	.string	"switch"
	.align 8
.LC43:
	.string	"expected \342\200\230(\342\200\231 before \342\200\230{\342\200\231 token"
	.align 8
.LC44:
	.string	"multiple default labels in one switch"
.LC45:
	.string	"case"
.LC46:
	.string	"default"
.LC47:
	.string	"for"
.LC48:
	.string	"do"
.LC49:
	.string	"while"
.LC50:
	.string	"}"
	.text
	.globl	stmt
	.type	stmt, @function
stmt:
.LFB11:
	.loc 1 384 17
	.cfi_startproc
	push	rbp
	.cfi_def_cfa_offset 16
	.cfi_offset 6, -16
	mov	rbp, rsp
	.cfi_def_cfa_register 6
	sub	rsp, 112
	.loc 1 385 6
	mov	eax, DWORD PTR label_loop_end[rip]
	mov	DWORD PTR -52[rbp], eax
	.loc 1 386 8
	mov	QWORD PTR -8[rbp], 0
	.loc 1 388 5
	mov	esi, 19
	lea	rdi, .LC38[rip]
	call	consume_reserved_word@PLT
	.loc 1 388 4
	test	al, al
	je	.L113
	.loc 1 389 10
	mov	rax, QWORD PTR -8[rbp]
	mov	edx, 0
	mov	rsi, rax
	mov	edi, 42
	call	new_node@PLT
	mov	QWORD PTR -8[rbp], rax
	.loc 1 390 7
	lea	rdi, .LC33[rip]
	call	consume@PLT
	.loc 1 390 6
	xor	eax, 1
	.loc 1 390 5
	test	al, al
	je	.L114
	.loc 1 391 16
	call	expr
	.loc 1 391 14
	mov	rdx, QWORD PTR -8[rbp]
	mov	QWORD PTR 16[rdx], rax
	.loc 1 392 8
	lea	rdi, .LC33[rip]
	call	consume@PLT
	.loc 1 392 7
	xor	eax, 1
	.loc 1 392 6
	test	al, al
	je	.L114
	.loc 1 392 36 discriminator 1
	mov	rax, QWORD PTR token[rip]
	.loc 1 392 22 discriminator 1
	mov	rax, QWORD PTR 24[rax]
	lea	rsi, .LC39[rip]
	mov	rdi, rax
	call	error_at@PLT
	jmp	.L114
.L113:
	.loc 1 394 11
	mov	esi, 4
	lea	rdi, .LC40[rip]
	call	consume_reserved_word@PLT
	.loc 1 394 10
	test	al, al
	je	.L115
	.loc 1 406 15
	mov	rax, QWORD PTR -8[rbp]
	mov	edx, 0
	mov	rsi, rax
	mov	edi, 33
	call	new_node@PLT
	mov	QWORD PTR -8[rbp], rax
	.loc 1 407 24
	mov	eax, DWORD PTR label_num[rip]
	lea	edx, 1[rax]
	mov	DWORD PTR label_num[rip], edx
	.loc 1 407 13
	mov	rdx, QWORD PTR -8[rbp]
	mov	DWORD PTR 48[rdx], eax
	.loc 1 408 6
	lea	rdi, .LC0[rip]
	call	consume@PLT
	.loc 1 408 5
	test	al, al
	je	.L116
.LBB16:
	.loc 1 410 17
	call	expr
	mov	QWORD PTR -104[rbp], rax
	.loc 1 412 4
	lea	rdi, .LC1[rip]
	call	expect@PLT
	.loc 1 415 14
	mov	rax, QWORD PTR -8[rbp]
	mov	rdx, QWORD PTR -104[rbp]
	mov	QWORD PTR 8[rax], rdx
	.loc 1 416 16
	call	stmt
	.loc 1 416 14
	mov	rdx, QWORD PTR -8[rbp]
	mov	QWORD PTR 16[rdx], rax
.L116:
.LBE16:
	.loc 1 419 6
	mov	esi, 5
	lea	rdi, .LC41[rip]
	call	consume_reserved_word@PLT
	.loc 1 419 5
	test	al, al
	je	.L114
.LBB17:
	.loc 1 421 23
	call	stmt
	mov	rdx, rax
	mov	rax, QWORD PTR -8[rbp]
	mov	rsi, rax
	mov	edi, 34
	call	new_node@PLT
	mov	QWORD PTR -112[rbp], rax
	.loc 1 422 27
	mov	rax, QWORD PTR -8[rbp]
	mov	rdx, QWORD PTR 16[rax]
	.loc 1 422 21
	mov	rax, QWORD PTR -112[rbp]
	mov	QWORD PTR 8[rax], rdx
	.loc 1 423 15
	mov	rax, QWORD PTR -8[rbp]
	mov	rdx, QWORD PTR -112[rbp]
	mov	QWORD PTR 16[rax], rdx
	.loc 1 424 15
	mov	rax, QWORD PTR -8[rbp]
	mov	DWORD PTR [rax], 35
	jmp	.L114
.L115:
.LBE17:
	.loc 1 427 12
	mov	esi, 6
	lea	rdi, .LC42[rip]
	call	consume_reserved_word@PLT
	.loc 1 427 11
	test	al, al
	je	.L117
.LBB18:
	.loc 1 439 11
	mov	QWORD PTR -16[rbp], 0
	.loc 1 440 10
	mov	rax, QWORD PTR labels_tail[rip]
	mov	QWORD PTR -96[rbp], rax
	.loc 1 441 10
	mov	QWORD PTR -24[rbp], 0
	.loc 1 443 16
	mov	rax, QWORD PTR -8[rbp]
	mov	edx, 0
	mov	rsi, rax
	mov	edi, 36
	call	new_node@PLT
	mov	QWORD PTR -8[rbp], rax
	.loc 1 444 24
	mov	eax, DWORD PTR label_num[rip]
	lea	edx, 1[rax]
	mov	DWORD PTR label_num[rip], edx
	.loc 1 444 13
	mov	rdx, QWORD PTR -8[rbp]
	mov	DWORD PTR 48[rdx], eax
	.loc 1 445 24
	mov	rax, QWORD PTR -8[rbp]
	mov	eax, DWORD PTR 48[rax]
	.loc 1 445 18
	mov	DWORD PTR label_loop_end[rip], eax
	.loc 1 447 7
	lea	rdi, .LC0[rip]
	call	consume@PLT
	.loc 1 447 6
	test	al, al
	je	.L118
	.loc 1 449 12
	call	expr
	mov	QWORD PTR -16[rbp], rax
	.loc 1 451 5
	lea	rdi, .LC1[rip]
	call	expect@PLT
	jmp	.L119
.L118:
	.loc 1 453 19
	mov	rax, QWORD PTR token[rip]
	.loc 1 453 5
	mov	rax, QWORD PTR 24[rax]
	lea	rsi, .LC43[rip]
	mov	rdi, rax
	call	error_at@PLT
.L119:
	.loc 1 457 15
	call	stmt
	.loc 1 457 13
	mov	rdx, QWORD PTR -8[rbp]
	mov	QWORD PTR 16[rdx], rax
	.loc 1 460 9
	mov	QWORD PTR -32[rbp], 0
	.loc 1 461 8
	mov	rax, QWORD PTR -96[rbp]
	mov	QWORD PTR -24[rbp], rax
	.loc 1 462 44
	cmp	QWORD PTR -96[rbp], 0
	je	.L120
	.loc 1 462 44 is_stmt 0 discriminator 1
	mov	rax, QWORD PTR -24[rbp]
	mov	rax, QWORD PTR 16[rax]
	jmp	.L121
.L120:
	.loc 1 462 44 discriminator 2
	mov	rax, QWORD PTR labels_head[rip]
.L121:
	.loc 1 462 10 is_stmt 1 discriminator 4
	mov	QWORD PTR -40[rbp], rax
	.loc 1 463 8 discriminator 4
	jmp	.L122
.L128:
	.loc 1 464 9
	mov	rax, QWORD PTR -40[rbp]
	mov	eax, DWORD PTR 24[rax]
	.loc 1 464 6
	cmp	eax, 1
	jne	.L123
	.loc 1 465 7
	cmp	QWORD PTR -32[rbp], 0
	je	.L124
	.loc 1 466 30
	mov	rax, QWORD PTR -40[rbp]
	mov	rdx, QWORD PTR 8[rax]
	mov	rax, QWORD PTR -16[rbp]
	mov	rsi, rax
	mov	edi, 9
	call	new_node@PLT
	.loc 1 466 28
	mov	rdx, QWORD PTR -32[rbp]
	mov	QWORD PTR 24[rdx], rax
	.loc 1 467 16
	mov	rax, QWORD PTR -32[rbp]
	mov	rax, QWORD PTR 24[rax]
	.loc 1 467 32
	mov	rdx, QWORD PTR -40[rbp]
	mov	edx, DWORD PTR [rdx]
	.loc 1 467 28
	mov	DWORD PTR 48[rax], edx
	.loc 1 468 28
	mov	rax, QWORD PTR -32[rbp]
	mov	rax, QWORD PTR 24[rax]
	mov	QWORD PTR -32[rbp], rax
	jmp	.L125
.L124:
	.loc 1 470 24
	mov	rax, QWORD PTR -40[rbp]
	mov	rdx, QWORD PTR 8[rax]
	mov	rax, QWORD PTR -16[rbp]
	mov	rsi, rax
	mov	edi, 9
	call	new_node@PLT
	mov	QWORD PTR -32[rbp], rax
	.loc 1 471 26
	mov	rax, QWORD PTR -40[rbp]
	mov	edx, DWORD PTR [rax]
	.loc 1 471 22
	mov	rax, QWORD PTR -32[rbp]
	mov	DWORD PTR 48[rax], edx
	.loc 1 472 22
	mov	rax, QWORD PTR -8[rbp]
	mov	rdx, QWORD PTR -32[rbp]
	mov	QWORD PTR 24[rax], rdx
	jmp	.L125
.L123:
	.loc 1 474 15
	mov	rax, QWORD PTR -40[rbp]
	mov	eax, DWORD PTR 24[rax]
	.loc 1 474 12
	cmp	eax, 2
	jne	.L125
	.loc 1 475 12
	mov	rax, QWORD PTR -8[rbp]
	mov	rax, QWORD PTR 8[rax]
	.loc 1 475 7
	test	rax, rax
	je	.L126
	.loc 1 476 20
	mov	rax, QWORD PTR token[rip]
	.loc 1 476 6
	mov	rax, QWORD PTR 24[rax]
	lea	rsi, .LC44[rip]
	mov	rdi, rax
	call	error_at@PLT
	jmp	.L125
.L126:
	.loc 1 478 23
	mov	rax, QWORD PTR -40[rbp]
	mov	rax, QWORD PTR 8[rax]
	mov	rdx, rax
	mov	esi, 0
	mov	edi, 29
	call	new_node@PLT
	.loc 1 478 21
	mov	rdx, QWORD PTR -8[rbp]
	mov	QWORD PTR 8[rdx], rax
	.loc 1 479 10
	mov	rax, QWORD PTR -8[rbp]
	mov	rax, QWORD PTR 8[rax]
	.loc 1 479 25
	mov	rdx, QWORD PTR -40[rbp]
	mov	edx, DWORD PTR [rdx]
	.loc 1 479 21
	mov	DWORD PTR 48[rax], edx
.L125:
	.loc 1 484 6
	cmp	QWORD PTR -24[rbp], 0
	je	.L127
	.loc 1 485 20
	mov	rax, QWORD PTR -40[rbp]
	mov	rdx, QWORD PTR 16[rax]
	.loc 1 485 16
	mov	rax, QWORD PTR -24[rbp]
	mov	QWORD PTR 16[rax], rdx
	.loc 1 487 10
	mov	rax, QWORD PTR -24[rbp]
	mov	rax, QWORD PTR 16[rax]
	mov	QWORD PTR -40[rbp], rax
	.loc 1 488 10
	mov	rax, QWORD PTR -40[rbp]
	mov	QWORD PTR -24[rbp], rax
	jmp	.L122
.L127:
	.loc 1 491 10
	mov	rax, QWORD PTR -40[rbp]
	mov	QWORD PTR -24[rbp], rax
	.loc 1 493 10
	mov	rax, QWORD PTR -40[rbp]
	mov	rax, QWORD PTR 16[rax]
	mov	QWORD PTR -40[rbp], rax
	.loc 1 494 10
	mov	QWORD PTR -24[rbp], 0
.L122:
	.loc 1 463 8
	cmp	QWORD PTR -40[rbp], 0
	jne	.L128
	jmp	.L114
.L117:
.LBE18:
	.loc 1 497 11
	mov	esi, 7
	lea	rdi, .LC45[rip]
	call	consume_reserved_word@PLT
	.loc 1 497 10
	test	al, al
	je	.L129
	.loc 1 501 10
	call	logical
	mov	edx, 0
	mov	rsi, rax
	mov	edi, 29
	call	new_node@PLT
	mov	QWORD PTR -8[rbp], rax
	.loc 1 502 3
	lea	rdi, .LC27[rip]
	call	expect@PLT
	.loc 1 503 3
	mov	rax, QWORD PTR -8[rbp]
	mov	esi, 1
	mov	rdi, rax
	call	label_register@PLT
	.loc 1 504 15
	call	stmt
	.loc 1 504 13
	mov	rdx, QWORD PTR -8[rbp]
	mov	QWORD PTR 16[rdx], rax
	jmp	.L114
.L129:
	.loc 1 505 11
	mov	esi, 8
	lea	rdi, .LC46[rip]
	call	consume_reserved_word@PLT
	.loc 1 505 10
	test	al, al
	je	.L130
	.loc 1 509 10
	mov	edx, 0
	mov	esi, 0
	mov	edi, 29
	call	new_node@PLT
	mov	QWORD PTR -8[rbp], rax
	.loc 1 510 3
	lea	rdi, .LC27[rip]
	call	expect@PLT
	.loc 1 511 15
	call	stmt
	.loc 1 511 13
	mov	rdx, QWORD PTR -8[rbp]
	mov	QWORD PTR 16[rdx], rax
	.loc 1 512 3
	mov	rax, QWORD PTR -8[rbp]
	mov	esi, 2
	mov	rdi, rax
	call	label_register@PLT
	jmp	.L114
.L130:
	.loc 1 513 11
	mov	esi, 11
	lea	rdi, .LC47[rip]
	call	consume_reserved_word@PLT
	.loc 1 513 10
	test	al, al
	je	.L131
	.loc 1 514 18
	mov	rax, QWORD PTR locals[rip]
	mov	QWORD PTR outside_lvar[rip], rax
	.loc 1 515 18
	mov	rax, QWORD PTR enumerations[rip]
	mov	QWORD PTR outside_enum[rip], rax
	.loc 1 516 18
	mov	rax, QWORD PTR structs[rip]
	mov	QWORD PTR outside_struct[rip], rax
	.loc 1 518 15
	mov	rax, QWORD PTR -8[rbp]
	mov	edx, 0
	mov	rsi, rax
	mov	edi, 37
	call	new_node@PLT
	mov	QWORD PTR -8[rbp], rax
	.loc 1 519 24
	mov	eax, DWORD PTR label_num[rip]
	lea	edx, 1[rax]
	mov	DWORD PTR label_num[rip], edx
	.loc 1 519 13
	mov	rdx, QWORD PTR -8[rbp]
	mov	DWORD PTR 48[rdx], eax
	.loc 1 520 24
	mov	rax, QWORD PTR -8[rbp]
	mov	eax, DWORD PTR 48[rax]
	.loc 1 520 18
	mov	DWORD PTR label_loop_end[rip], eax
	.loc 1 522 6
	lea	rdi, .LC0[rip]
	call	consume@PLT
	.loc 1 522 5
	test	al, al
	je	.L132
.LBB19:
	.loc 1 524 17
	call	expr
	mov	QWORD PTR -72[rbp], rax
	.loc 1 525 4
	lea	rdi, .LC33[rip]
	call	expect@PLT
	.loc 1 526 17
	call	expr
	mov	QWORD PTR -80[rbp], rax
	.loc 1 527 4
	lea	rdi, .LC33[rip]
	call	expect@PLT
	.loc 1 528 17
	call	expr
	mov	QWORD PTR -88[rbp], rax
	.loc 1 530 4
	lea	rdi, .LC1[rip]
	call	expect@PLT
	.loc 1 534 16
	call	stmt
	.loc 1 534 14
	mov	rdx, QWORD PTR -8[rbp]
	mov	QWORD PTR 16[rdx], rax
	.loc 1 535 14
	mov	rax, QWORD PTR -8[rbp]
	mov	rdx, QWORD PTR -72[rbp]
	mov	QWORD PTR 8[rax], rdx
	.loc 1 536 8
	mov	rax, QWORD PTR -8[rbp]
	mov	rax, QWORD PTR 8[rax]
	.loc 1 536 20
	mov	rdx, QWORD PTR -80[rbp]
	mov	QWORD PTR 24[rax], rdx
	.loc 1 537 8
	mov	rax, QWORD PTR -8[rbp]
	mov	rax, QWORD PTR 8[rax]
	.loc 1 537 13
	mov	rax, QWORD PTR 24[rax]
	.loc 1 537 26
	mov	rdx, QWORD PTR -88[rbp]
	mov	QWORD PTR 24[rax], rdx
.L132:
.LBE19:
	.loc 1 540 16
	mov	rax, QWORD PTR outside_lvar[rip]
	mov	QWORD PTR locals[rip], rax
	.loc 1 541 16
	mov	rax, QWORD PTR outside_enum[rip]
	mov	QWORD PTR enumerations[rip], rax
	.loc 1 542 16
	mov	rax, QWORD PTR outside_struct[rip]
	mov	QWORD PTR structs[rip], rax
	jmp	.L114
.L131:
	.loc 1 543 11
	mov	esi, 9
	lea	rdi, .LC48[rip]
	call	consume_reserved_word@PLT
	.loc 1 543 10
	test	al, al
	je	.L133
	.loc 1 545 15
	call	stmt
	mov	rdx, rax
	mov	esi, 0
	mov	edi, 39
	call	new_node@PLT
	mov	QWORD PTR -8[rbp], rax
	.loc 1 546 24
	mov	eax, DWORD PTR label_num[rip]
	lea	edx, 1[rax]
	mov	DWORD PTR label_num[rip], edx
	.loc 1 546 13
	mov	rdx, QWORD PTR -8[rbp]
	mov	DWORD PTR 48[rdx], eax
	.loc 1 547 24
	mov	rax, QWORD PTR -8[rbp]
	mov	eax, DWORD PTR 48[rax]
	.loc 1 547 18
	mov	DWORD PTR label_loop_end[rip], eax
	.loc 1 549 3
	mov	esi, 10
	lea	rdi, .LC49[rip]
	call	consume_reserved_word@PLT
	.loc 1 550 6
	lea	rdi, .LC0[rip]
	call	consume@PLT
	.loc 1 550 5
	test	al, al
	je	.L134
	.loc 1 551 16
	call	expr
	.loc 1 551 14
	mov	rdx, QWORD PTR -8[rbp]
	mov	QWORD PTR 8[rdx], rax
	.loc 1 552 4
	lea	rdi, .LC1[rip]
	call	expect@PLT
.L134:
	.loc 1 554 3
	lea	rdi, .LC33[rip]
	call	expect@PLT
	jmp	.L114
.L133:
	.loc 1 555 11
	mov	esi, 10
	lea	rdi, .LC49[rip]
	call	consume_reserved_word@PLT
	.loc 1 555 10
	test	al, al
	je	.L135
	.loc 1 556 15
	mov	rax, QWORD PTR -8[rbp]
	mov	edx, 0
	mov	rsi, rax
	mov	edi, 38
	call	new_node@PLT
	mov	QWORD PTR -8[rbp], rax
	.loc 1 557 24
	mov	eax, DWORD PTR label_num[rip]
	lea	edx, 1[rax]
	mov	DWORD PTR label_num[rip], edx
	.loc 1 557 13
	mov	rdx, QWORD PTR -8[rbp]
	mov	DWORD PTR 48[rdx], eax
	.loc 1 558 6
	lea	rdi, .LC0[rip]
	call	consume@PLT
	.loc 1 558 5
	test	al, al
	je	.L114
.LBB20:
	.loc 1 560 17
	call	expr
	mov	QWORD PTR -64[rbp], rax
	.loc 1 562 4
	lea	rdi, .LC1[rip]
	call	expect@PLT
	.loc 1 565 14
	mov	rax, QWORD PTR -8[rbp]
	mov	rdx, QWORD PTR -64[rbp]
	mov	QWORD PTR 8[rax], rdx
	.loc 1 566 16
	call	stmt
	.loc 1 566 14
	mov	rdx, QWORD PTR -8[rbp]
	mov	QWORD PTR 16[rdx], rax
	jmp	.L114
.L135:
.LBE20:
	.loc 1 568 11
	lea	rdi, .LC35[rip]
	call	consume@PLT
	.loc 1 568 10
	test	al, al
	je	.L136
.LBB21:
	.loc 1 569 10
	mov	rax, QWORD PTR -8[rbp]
	mov	edx, 0
	mov	rsi, rax
	mov	edi, 31
	call	new_node@PLT
	mov	QWORD PTR -8[rbp], rax
	.loc 1 570 18
	mov	rax, QWORD PTR locals[rip]
	mov	QWORD PTR outside_lvar[rip], rax
	.loc 1 571 18
	mov	rax, QWORD PTR enumerations[rip]
	mov	QWORD PTR outside_enum[rip], rax
	.loc 1 572 18
	mov	rax, QWORD PTR structs[rip]
	mov	QWORD PTR outside_struct[rip], rax
	.loc 1 574 22
	mov	esi, 72
	mov	edi, 1
	call	calloc@PLT
	mov	QWORD PTR -48[rbp], rax
	.loc 1 575 8
	jmp	.L137
.L139:
	.loc 1 577 11
	mov	rax, QWORD PTR -8[rbp]
	mov	rax, QWORD PTR 16[rax]
	.loc 1 577 6
	test	rax, rax
	je	.L138
	.loc 1 578 30
	call	stmt
	.loc 1 578 28
	mov	rdx, QWORD PTR -48[rbp]
	mov	QWORD PTR 32[rdx], rax
	.loc 1 579 16
	mov	rax, QWORD PTR -48[rbp]
	mov	rax, QWORD PTR 32[rax]
	mov	QWORD PTR -48[rbp], rax
	jmp	.L137
.L138:
	.loc 1 581 18
	call	stmt
	mov	QWORD PTR -48[rbp], rax
	.loc 1 582 15
	mov	rax, QWORD PTR -8[rbp]
	mov	rdx, QWORD PTR -48[rbp]
	mov	QWORD PTR 16[rax], rdx
.L137:
	.loc 1 575 14
	mov	rax, QWORD PTR token[rip]
	mov	eax, DWORD PTR [rax]
	.loc 1 575 8
	cmp	eax, 13
	jne	.L139
	.loc 1 586 16
	mov	rax, QWORD PTR outside_lvar[rip]
	mov	QWORD PTR locals[rip], rax
	.loc 1 587 16
	mov	rax, QWORD PTR outside_enum[rip]
	mov	QWORD PTR enumerations[rip], rax
	.loc 1 588 16
	mov	rax, QWORD PTR outside_struct[rip]
	mov	QWORD PTR structs[rip], rax
	.loc 1 589 3
	lea	rdi, .LC50[rip]
	call	expect@PLT
.LBE21:
	jmp	.L114
.L136:
	.loc 1 591 10
	call	expr
	mov	QWORD PTR -8[rbp], rax
	.loc 1 592 7
	lea	rdi, .LC33[rip]
	call	consume@PLT
	.loc 1 592 6
	xor	eax, 1
	.loc 1 592 5
	test	al, al
	je	.L114
	.loc 1 593 9
	jmp	.L140
.L141:
	.loc 1 593 37 discriminator 2
	mov	rax, QWORD PTR token[rip]
	mov	rdx, QWORD PTR 24[rax]
	.loc 1 593 43 discriminator 2
	sub	rdx, 1
	mov	QWORD PTR 24[rax], rdx
.L140:
	.loc 1 593 17 discriminator 1
	mov	rax, QWORD PTR token[rip]
	mov	rax, QWORD PTR 24[rax]
	.loc 1 593 10 discriminator 1
	movzx	eax, BYTE PTR [rax]
	.loc 1 593 9 discriminator 1
	cmp	al, 10
	jne	.L141
	.loc 1 594 18
	mov	rax, QWORD PTR token[rip]
	.loc 1 594 4
	mov	rax, QWORD PTR 24[rax]
	lea	rsi, .LC39[rip]
	mov	rdi, rax
	call	error_at@PLT
.L114:
	.loc 1 599 17
	mov	eax, DWORD PTR -52[rbp]
	mov	DWORD PTR label_loop_end[rip], eax
	.loc 1 600 9
	mov	rax, QWORD PTR -8[rbp]
	.loc 1 601 1
	leave
	.cfi_def_cfa 7, 8
	ret
	.cfi_endproc
.LFE11:
	.size	stmt, .-stmt
	.globl	function
	.type	function, @function
function:
.LFB12:
	.loc 1 603 26
	.cfi_startproc
	push	rbp
	.cfi_def_cfa_offset 16
	.cfi_offset 6, -16
	mov	rbp, rsp
	.cfi_def_cfa_register 6
	push	rbx
	sub	rsp, 40
	.cfi_offset 3, -24
	mov	QWORD PTR -40[rbp], rdi
	.loc 1 604 6
	mov	DWORD PTR -20[rbp], 0
	.loc 1 606 12
	mov	rax, QWORD PTR defined_types[rip]
	mov	QWORD PTR -32[rbp], rax
	.loc 1 609 7
	jmp	.L144
.L145:
	.loc 1 610 15
	mov	ebx, DWORD PTR -20[rbp]
	lea	eax, 1[rbx]
	mov	DWORD PTR -20[rbp], eax
	.loc 1 610 21
	call	stmt
	.loc 1 610 19
	mov	rdx, QWORD PTR -40[rbp]
	movsx	rcx, ebx
	add	rcx, 4
	mov	QWORD PTR [rdx+rcx*8], rax
.L144:
	.loc 1 609 9
	lea	rdi, .LC50[rip]
	call	consume@PLT
	.loc 1 609 8
	xor	eax, 1
	.loc 1 609 7
	test	al, al
	jne	.L145
	.loc 1 613 16
	mov	rax, QWORD PTR -32[rbp]
	mov	QWORD PTR defined_types[rip], rax
	.loc 1 615 19
	mov	edx, DWORD PTR alloc_size[rip]
	mov	rax, QWORD PTR -40[rbp]
	mov	DWORD PTR [rax], edx
	.loc 1 616 16
	mov	rax, QWORD PTR -40[rbp]
	mov	edx, DWORD PTR -20[rbp]
	movsx	rdx, edx
	add	rdx, 4
	mov	QWORD PTR [rax+rdx*8], 0
	.loc 1 617 1
	nop
	add	rsp, 40
	pop	rbx
	pop	rbp
	.cfi_def_cfa 7, 8
	ret
	.cfi_endproc
.LFE12:
	.size	function, .-function
	.section	.rodata
.LC51:
	.string	"typedef"
.LC52:
	.string	"extern"
.LC53:
	.string	"_Thread_local"
.LC54:
	.string	"not a function."
	.text
	.globl	program
	.type	program, @function
program:
.LFB13:
	.loc 1 619 19
	.cfi_startproc
	push	rbp
	.cfi_def_cfa_offset 16
	.cfi_offset 6, -16
	mov	rbp, rsp
	.cfi_def_cfa_register 6
	push	rbx
	sub	rsp, 72
	.cfi_offset 3, -24
	.loc 1 620 6
	mov	DWORD PTR -20[rbp], 0
	.loc 1 626 7
	jmp	.L147
.L161:
.LBB22:
	.loc 1 628 10
	mov	QWORD PTR locals[rip], 0
	.loc 1 631 14
	mov	DWORD PTR alloc_size[rip], 0
	.loc 1 632 14
	mov	DWORD PTR -32[rbp], 0
	.loc 1 635 19
	mov	DWORD PTR -24[rbp], 0
	.loc 1 636 19
	mov	DWORD PTR -28[rbp], 0
	.loc 1 639 6
	mov	esi, 17
	lea	rdi, .LC51[rip]
	call	consume_reserved_word@PLT
	.loc 1 639 5
	test	al, al
	je	.L148
.LBB23:
	.loc 1 640 29
	call	parse_type@PLT
	mov	QWORD PTR -64[rbp], rax
	.loc 1 641 29
	call	consume_ident@PLT
	mov	QWORD PTR -72[rbp], rax
	.loc 1 643 29
	mov	esi, 48
	mov	edi, 1
	call	calloc@PLT
	mov	QWORD PTR -80[rbp], rax
	.loc 1 644 37
	mov	rax, QWORD PTR -72[rbp]
	mov	rdx, QWORD PTR 24[rax]
	.loc 1 644 27
	mov	rax, QWORD PTR -80[rbp]
	mov	QWORD PTR [rax], rdx
	.loc 1 645 37
	mov	rax, QWORD PTR -72[rbp]
	mov	edx, DWORD PTR 32[rax]
	.loc 1 645 27
	mov	rax, QWORD PTR -80[rbp]
	mov	DWORD PTR 8[rax], edx
	.loc 1 647 21
	mov	rax, QWORD PTR -64[rbp]
	mov	eax, DWORD PTR [rax]
	.loc 1 647 6
	cmp	eax, 6
	jne	.L149
	.loc 1 648 36
	mov	rax, QWORD PTR structs[rip]
	mov	rdx, QWORD PTR 8[rax]
	.loc 1 648 27
	mov	rax, QWORD PTR -80[rbp]
	mov	QWORD PTR 16[rax], rdx
	.loc 1 649 36
	mov	rax, QWORD PTR structs[rip]
	mov	edx, DWORD PTR [rax]
	.loc 1 649 27
	mov	rax, QWORD PTR -80[rbp]
	mov	DWORD PTR 24[rax], edx
	jmp	.L150
.L149:
	.loc 1 650 27
	mov	rax, QWORD PTR -64[rbp]
	mov	eax, DWORD PTR [rax]
	.loc 1 650 12
	cmp	eax, 7
	jne	.L150
	.loc 1 651 20
	mov	rax, QWORD PTR enumerations[rip]
	mov	rax, QWORD PTR 8[rax]
	.loc 1 651 7
	test	rax, rax
	je	.L151
	.loc 1 652 42
	mov	rax, QWORD PTR enumerations[rip]
	mov	rdx, QWORD PTR 8[rax]
	.loc 1 652 28
	mov	rax, QWORD PTR -80[rbp]
	mov	QWORD PTR 16[rax], rdx
	.loc 1 653 42
	mov	rax, QWORD PTR enumerations[rip]
	mov	edx, DWORD PTR [rax]
	.loc 1 653 28
	mov	rax, QWORD PTR -80[rbp]
	mov	DWORD PTR 24[rax], edx
	jmp	.L150
.L151:
	.loc 1 655 18
	mov	rax, QWORD PTR enumerations[rip]
	.loc 1 655 38
	mov	rdx, QWORD PTR -72[rbp]
	mov	rdx, QWORD PTR 24[rdx]
	.loc 1 655 28
	mov	QWORD PTR 8[rax], rdx
	.loc 1 656 18
	mov	rax, QWORD PTR enumerations[rip]
	.loc 1 656 38
	mov	rdx, QWORD PTR -72[rbp]
	mov	edx, DWORD PTR 32[rdx]
	.loc 1 656 28
	mov	DWORD PTR [rax], edx
	.loc 1 657 38
	mov	rax, QWORD PTR -72[rbp]
	mov	rdx, QWORD PTR 24[rax]
	.loc 1 657 28
	mov	rax, QWORD PTR -80[rbp]
	mov	QWORD PTR 16[rax], rdx
	.loc 1 658 38
	mov	rax, QWORD PTR -72[rbp]
	mov	edx, DWORD PTR 32[rax]
	.loc 1 658 28
	mov	rax, QWORD PTR -80[rbp]
	mov	DWORD PTR 24[rax], edx
.L150:
	.loc 1 662 23
	mov	rax, QWORD PTR -80[rbp]
	mov	rdx, QWORD PTR -64[rbp]
	mov	QWORD PTR 32[rax], rdx
	.loc 1 663 23
	mov	rdx, QWORD PTR defined_types[rip]
	mov	rax, QWORD PTR -80[rbp]
	mov	QWORD PTR 40[rax], rdx
	.loc 1 664 23
	mov	rax, QWORD PTR -80[rbp]
	mov	QWORD PTR defined_types[rip], rax
	.loc 1 666 4
	lea	rdi, .LC33[rip]
	call	expect@PLT
	.loc 1 667 4
	jmp	.L147
.L148:
.LBE23:
	.loc 1 671 6
	mov	esi, 18
	lea	rdi, .LC52[rip]
	call	consume_reserved_word@PLT
	.loc 1 671 5
	test	al, al
	je	.L152
	.loc 1 672 14
	mov	DWORD PTR -24[rbp], 1
.L152:
	.loc 1 676 6
	mov	esi, 20
	lea	rdi, .LC53[rip]
	call	consume_reserved_word@PLT
	.loc 1 676 5
	test	al, al
	je	.L153
	.loc 1 677 20
	mov	DWORD PTR -28[rbp], 1
.L153:
	.loc 1 682 16
	call	parse_type@PLT
	mov	QWORD PTR -40[rbp], rax
	.loc 1 683 31
	mov	rax, QWORD PTR -40[rbp]
	mov	edx, DWORD PTR -24[rbp]
	mov	DWORD PTR 28[rax], edx
	.loc 1 684 31
	mov	rax, QWORD PTR -40[rbp]
	mov	edx, DWORD PTR -28[rbp]
	mov	DWORD PTR 32[rax], edx
	.loc 1 687 6
	lea	rdi, .LC33[rip]
	call	consume@PLT
	.loc 1 687 5
	test	al, al
	je	.L154
	.loc 1 688 4
	jmp	.L147
.L154:
	.loc 1 691 27
	mov	esi, 2440
	mov	edi, 1
	call	calloc@PLT
	mov	rcx, rax
	.loc 1 691 25
	mov	eax, DWORD PTR -20[rbp]
	cdqe
	lea	rdx, 0[0+rax*8]
	lea	rax, func_list[rip]
	mov	QWORD PTR [rdx+rax], rcx
	.loc 1 694 11
	mov	rax, QWORD PTR token[rip]
	mov	eax, DWORD PTR [rax]
	.loc 1 694 5
	cmp	eax, 2
	jne	.L155
	.loc 1 694 49 discriminator 1
	mov	rax, QWORD PTR token[rip]
	mov	rax, QWORD PTR 24[rax]
	.loc 1 694 43 discriminator 1
	movzx	eax, BYTE PTR [rax]
	.loc 1 694 34 discriminator 1
	movsx	eax, al
	mov	edi, eax
	call	is_alnum@PLT
	.loc 1 694 30 discriminator 1
	test	eax, eax
	jne	.L156
.L155:
	.loc 1 695 18
	mov	rax, QWORD PTR token[rip]
	.loc 1 695 4
	mov	rax, QWORD PTR 24[rax]
	lea	rsi, .LC54[rip]
	mov	rdi, rax
	call	error_at@PLT
.L156:
	.loc 1 698 21
	call	consume_ident@PLT
	mov	QWORD PTR -48[rbp], rax
	.loc 1 701 6
	lea	rdi, .LC0[rip]
	call	consume@PLT
	.loc 1 701 5
	test	al, al
	je	.L157
	.loc 1 702 13
	mov	eax, DWORD PTR -20[rbp]
	cdqe
	lea	rdx, 0[0+rax*8]
	lea	rax, func_list[rip]
	mov	rax, QWORD PTR [rdx+rax]
	.loc 1 702 32
	mov	rdx, QWORD PTR -40[rbp]
	mov	QWORD PTR 16[rax], rdx
	.loc 1 703 49
	mov	rax, QWORD PTR -48[rbp]
	mov	eax, DWORD PTR 32[rax]
	.loc 1 703 34
	cdqe
	.loc 1 703 13
	mov	edx, DWORD PTR -20[rbp]
	movsx	rdx, edx
	lea	rcx, 0[0+rdx*8]
	lea	rdx, func_list[rip]
	mov	rbx, QWORD PTR [rcx+rdx]
	.loc 1 703 34
	mov	esi, 1
	mov	rdi, rax
	call	calloc@PLT
	.loc 1 703 32
	mov	QWORD PTR 8[rbx], rax
	.loc 1 704 64
	mov	rax, QWORD PTR -48[rbp]
	mov	eax, DWORD PTR 32[rax]
	.loc 1 704 4
	movsx	rdx, eax
	.loc 1 704 49
	mov	rax, QWORD PTR -48[rbp]
	mov	rcx, QWORD PTR 24[rax]
	.loc 1 704 21
	mov	eax, DWORD PTR -20[rbp]
	cdqe
	lea	rsi, 0[0+rax*8]
	lea	rax, func_list[rip]
	mov	rax, QWORD PTR [rsi+rax]
	.loc 1 704 4
	mov	rax, QWORD PTR 8[rax]
	mov	rsi, rcx
	mov	rdi, rax
	call	strncpy@PLT
	.loc 1 707 59
	mov	eax, DWORD PTR -20[rbp]
	cdqe
	lea	rdx, 0[0+rax*8]
	lea	rax, func_list[rip]
	mov	rax, QWORD PTR [rdx+rax]
	.loc 1 707 34
	mov	rax, QWORD PTR 16[rax]
	.loc 1 707 13
	mov	edx, DWORD PTR -20[rbp]
	movsx	rdx, edx
	lea	rcx, 0[0+rdx*8]
	lea	rdx, func_list[rip]
	mov	rbx, QWORD PTR [rcx+rdx]
	.loc 1 707 34
	mov	edx, DWORD PTR -32[rbp]
	mov	esi, edx
	mov	rdi, rax
	call	insert_ptr_type@PLT
	.loc 1 707 32
	mov	QWORD PTR 16[rbx], rax
	.loc 1 710 4
	mov	eax, DWORD PTR -20[rbp]
	mov	edi, eax
	call	get_argument@PLT
	.loc 1 713 4
	lea	rdi, .LC35[rip]
	call	consume@PLT
	.loc 1 714 33
	mov	eax, DWORD PTR -20[rbp]
	lea	edx, 1[rax]
	mov	DWORD PTR -20[rbp], edx
	.loc 1 714 4
	cdqe
	lea	rdx, 0[0+rax*8]
	lea	rax, func_list[rip]
	mov	rax, QWORD PTR [rdx+rax]
	mov	rdi, rax
	call	function
	.loc 1 715 4
	lea	rdi, .LC50[rip]
	call	consume@PLT
	jmp	.L147
.L157:
.LBB24:
	.loc 1 718 20
	mov	rdx, QWORD PTR -40[rbp]
	mov	rcx, QWORD PTR -48[rbp]
	mov	eax, DWORD PTR -32[rbp]
	mov	rsi, rcx
	mov	edi, eax
	call	declare_global_variable@PLT
	mov	QWORD PTR -56[rbp], rax
	.loc 1 721 7
	lea	rdi, .LC28[rip]
	call	consume@PLT
	.loc 1 721 6
	test	al, al
	je	.L158
	.loc 1 722 8
	lea	rdi, .LC35[rip]
	call	consume@PLT
	.loc 1 722 7
	test	al, al
	je	.L159
	.loc 1 723 13
	mov	rbx, QWORD PTR globals[rip]
	.loc 1 723 22
	mov	rax, QWORD PTR -56[rbp]
	mov	rdi, rax
	call	array_block@PLT
	.loc 1 723 20
	mov	QWORD PTR 32[rbx], rax
	jmp	.L160
.L159:
	.loc 1 725 22
	call	assign
	mov	rdx, rax
	.loc 1 725 13
	mov	rbx, QWORD PTR globals[rip]
	.loc 1 725 22
	mov	rax, QWORD PTR -56[rbp]
	mov	rsi, rdx
	mov	rdi, rax
	call	init_formula@PLT
	.loc 1 725 20
	mov	QWORD PTR 32[rbx], rax
	jmp	.L160
.L158:
	.loc 1 728 15
	mov	rax, QWORD PTR -56[rbp]
	mov	eax, DWORD PTR [rax]
	.loc 1 728 7
	cmp	eax, 23
	jne	.L160
	.loc 1 729 22
	mov	edi, 0
	call	new_node_num@PLT
	mov	rdx, rax
	.loc 1 729 13
	mov	rbx, QWORD PTR globals[rip]
	.loc 1 729 22
	mov	rax, QWORD PTR -56[rbp]
	mov	rsi, rdx
	mov	rdi, rax
	call	init_formula@PLT
	.loc 1 729 20
	mov	QWORD PTR 32[rbx], rax
.L160:
	.loc 1 733 4
	lea	rdi, .LC33[rip]
	call	expect@PLT
.L147:
.LBE24:
.LBE22:
	.loc 1 626 9
	call	at_eof@PLT
	.loc 1 626 8
	xor	eax, 1
	.loc 1 626 7
	test	al, al
	jne	.L161
	.loc 1 736 24
	mov	eax, DWORD PTR -20[rbp]
	cdqe
	lea	rdx, 0[0+rax*8]
	lea	rax, func_list[rip]
	mov	QWORD PTR [rdx+rax], 0
	.loc 1 737 1
	nop
	add	rsp, 72
	pop	rbx
	pop	rbp
	.cfi_def_cfa 7, 8
	ret
	.cfi_endproc
.LFE13:
	.size	program, .-program
.Letext0:
	.file 2 "/usr/lib/gcc/x86_64-linux-gnu/9/include/stddef.h"
	.file 3 "/usr/include/x86_64-linux-gnu/bits/types.h"
	.file 4 "/usr/include/x86_64-linux-gnu/bits/types/struct_FILE.h"
	.file 5 "/usr/include/x86_64-linux-gnu/bits/types/FILE.h"
	.file 6 "/usr/include/stdio.h"
	.file 7 "../include/cc_sakura.h"
	.section	.note.GNU-stack,"",@progbits
